---
triple:          'arm64-apple-darwin'
binary-path:     '/Users/tobymccarthy/Documents/coding/newGymProgram/rooster.out'
relocations:
  - { offsetInCU: 0xFEE4, offset: 0xFEE4, size: 0x8, addend: 0x0, symName: __ZStL8__ioinit, symObjAddr: 0x807D0, symBinAddr: 0x100014000, symSize: 0x0 }
  - { offsetInCU: 0x10C03, offset: 0x10C03, size: 0x8, addend: 0x0, symName: __ZSt8_DestroyI13ExerciseEntryEvPT_, symObjAddr: 0x7BF8, symBinAddr: 0x100008DB4, symSize: 0x20 }
  - { offsetInCU: 0x10C3C, offset: 0x10C3C, size: 0x8, addend: 0x0, symName: __ZNK9__gnu_cxx16__aligned_bufferISt4pairIKNSt7__cxx1112basic_stringIcSt11char_traitsIcESaIcEEEiEE7_M_addrEv, symObjAddr: 0x7BE4, symBinAddr: 0x100008DA0, symSize: 0x14 }
  - { offsetInCU: 0x10C5F, offset: 0x10C5F, size: 0x8, addend: 0x0, symName: __ZNSt12_Destroy_auxILb0EE9__destroyIP13ExerciseEntryEEvT_S4_, symObjAddr: 0x7B98, symBinAddr: 0x100008D54, symSize: 0x4C }
  - { offsetInCU: 0x10CA2, offset: 0x10CA2, size: 0x8, addend: 0x0, symName: __ZNSt15__new_allocatorIPNSt8__detail15_Hash_node_baseEE8allocateEmPKv, symObjAddr: 0x7B1C, symBinAddr: 0x100008CD8, symSize: 0x7C }
  - { offsetInCU: 0x10D2B, offset: 0x10D2B, size: 0x8, addend: 0x0, symName: __ZNK9__gnu_cxx16__aligned_bufferISt4pairIKNSt7__cxx1112basic_stringIcSt11char_traitsIcESaIcEEEiEE6_M_ptrEv, symObjAddr: 0x7B00, symBinAddr: 0x100008CBC, symSize: 0x1C }
  - { offsetInCU: 0x10D4F, offset: 0x10D4F, size: 0x8, addend: 0x0, symName: __ZSt8_DestroyIP13ExerciseEntryEvT_S2_, symObjAddr: 0x7ABC, symBinAddr: 0x100008C78, symSize: 0x44 }
  - { offsetInCU: 0x10DD0, offset: 0x10DD0, size: 0x8, addend: 0x0, symName: __ZSt7forwardIONSt7__cxx1112basic_stringIcSt11char_traitsIcESaIcEEEEOT_RNSt16remove_referenceIS7_E4typeE, symObjAddr: 0x7AA8, symBinAddr: 0x100008C64, symSize: 0x14 }
  - { offsetInCU: 0x10E00, offset: 0x10E00, size: 0x8, addend: 0x0, symName: __ZSteqIcSt11char_traitsIcESaIcEEbRKNSt7__cxx1112basic_stringIT_T0_T1_EESA_, symObjAddr: 0x7A28, symBinAddr: 0x100008BE4, symSize: 0x80 }
  - { offsetInCU: 0x10E5B, offset: 0x10E5B, size: 0x8, addend: 0x0, symName: __ZSt7forwardIRKSt4pairIKNSt7__cxx1112basic_stringIcSt11char_traitsIcESaIcEEEiEEOT_RNSt16remove_referenceISB_E4typeE, symObjAddr: 0x7A14, symBinAddr: 0x100008BD0, symSize: 0x14 }
  - { offsetInCU: 0x10EA5, offset: 0x10EA5, size: 0x8, addend: 0x0, symName: __ZNKSt8__detail21_Hashtable_ebo_helperILi0ESt8equal_toINSt7__cxx1112basic_stringIcSt11char_traitsIcESaIcEEEELb1EE7_M_cgetEv, symObjAddr: 0x7A00, symBinAddr: 0x100008BBC, symSize: 0x14 }
  - { offsetInCU: 0x10ECF, offset: 0x10ECF, size: 0x8, addend: 0x0, symName: __ZSt11__addressofINSt8__detail10_Hash_nodeISt4pairIKNSt7__cxx1112basic_stringIcSt11char_traitsIcESaIcEEEiELb1EEEEPT_RSC_, symObjAddr: 0x79EC, symBinAddr: 0x100008BA8, symSize: 0x14 }
  - { offsetInCU: 0x10EFF, offset: 0x10EFF, size: 0x8, addend: 0x0, symName: __ZSt10destroy_atI13ExerciseEntryEvPT_, symObjAddr: 0x79CC, symBinAddr: 0x100008B88, symSize: 0x20 }
  - { offsetInCU: 0x10F2F, offset: 0x10F2F, size: 0x8, addend: 0x0, symName: __ZSt12construct_atI13ExerciseEntryJS0_EEDTgsnwcvPvLi0E_T_pispcl7declvalIT0_EEEEPS2_DpOS3_, symObjAddr: 0x7980, symBinAddr: 0x100008B3C, symSize: 0x4C }
  - { offsetInCU: 0x10FB4, offset: 0x10FB4, size: 0x8, addend: 0x0, symName: __ZN13ExerciseEntryC1EOS_, symObjAddr: 0x7938, symBinAddr: 0x100008AF4, symSize: 0x48 }
  - { offsetInCU: 0x10FD0, offset: 0x10FD0, size: 0x8, addend: 0x0, symName: __ZSt7forwardI13ExerciseEntryEOT_RNSt16remove_referenceIS1_E4typeE, symObjAddr: 0x7924, symBinAddr: 0x100008AE0, symSize: 0x14 }
  - { offsetInCU: 0x11000, offset: 0x11000, size: 0x8, addend: 0x0, symName: __ZSt12construct_atISt6vectorI13ExerciseEntrySaIS1_EEJS3_EEDTgsnwcvPvLi0E_T_pispcl7declvalIT0_EEEEPS5_DpOS6_, symObjAddr: 0x78D8, symBinAddr: 0x100008A94, symSize: 0x4C }
  - { offsetInCU: 0x11095, offset: 0x11095, size: 0x8, addend: 0x0, symName: __ZNSt6vectorI13ExerciseEntrySaIS0_EEC1EOS2_, symObjAddr: 0x78B0, symBinAddr: 0x100008A6C, symSize: 0x28 }
  - { offsetInCU: 0x110EA, offset: 0x110EA, size: 0x8, addend: 0x0, symName: __ZNSt12_Vector_baseI13ExerciseEntrySaIS0_EEC2EOS2_, symObjAddr: 0x7888, symBinAddr: 0x100008A44, symSize: 0x28 }
  - { offsetInCU: 0x11153, offset: 0x11153, size: 0x8, addend: 0x0, symName: __ZNSt12_Vector_baseI13ExerciseEntrySaIS0_EE17_Vector_impl_dataC2EOS3_, symObjAddr: 0x7818, symBinAddr: 0x1000089D4, symSize: 0x70 }
  - { offsetInCU: 0x11186, offset: 0x11186, size: 0x8, addend: 0x0, symName: __ZSt4moveIRNSt12_Vector_baseI13ExerciseEntrySaIS1_EE12_Vector_implEEONSt16remove_referenceIT_E4typeEOS7_, symObjAddr: 0x7804, symBinAddr: 0x1000089C0, symSize: 0x14 }
  - { offsetInCU: 0x1121E, offset: 0x1121E, size: 0x8, addend: 0x0, symName: __ZNSt12_Vector_baseI13ExerciseEntrySaIS0_EE12_Vector_implC1EOS3_, symObjAddr: 0x7798, symBinAddr: 0x100008954, symSize: 0x6C }
  - { offsetInCU: 0x1126A, offset: 0x1126A, size: 0x8, addend: 0x0, symName: __ZSt7forwardISt6vectorI13ExerciseEntrySaIS1_EEEOT_RNSt16remove_referenceIS4_E4typeE, symObjAddr: 0x7784, symBinAddr: 0x100008940, symSize: 0x14 }
  - { offsetInCU: 0x1129E, offset: 0x1129E, size: 0x8, addend: 0x0, symName: __ZNSt12_Vector_baseI13ExerciseEntrySaIS0_EE13_M_deallocateEPS0_m, symObjAddr: 0x76F8, symBinAddr: 0x1000088B4, symSize: 0x8C }
  - { offsetInCU: 0x113A5, offset: 0x113A5, size: 0x8, addend: 0x0, symName: __ZSt12construct_atI8ExerciseJS0_EEDTgsnwcvPvLi0E_T_pispcl7declvalIT0_EEEEPS2_DpOS3_, symObjAddr: 0x76AC, symBinAddr: 0x100008868, symSize: 0x4C }
  - { offsetInCU: 0x11424, offset: 0x11424, size: 0x8, addend: 0x0, symName: __ZN8ExerciseC1EOS_, symObjAddr: 0x7668, symBinAddr: 0x100008824, symSize: 0x44 }
  - { offsetInCU: 0x11446, offset: 0x11446, size: 0x8, addend: 0x0, symName: __ZSt7forwardI8ExerciseEOT_RNSt16remove_referenceIS1_E4typeE, symObjAddr: 0x7654, symBinAddr: 0x100008810, symSize: 0x14 }
  - { offsetInCU: 0x11476, offset: 0x11476, size: 0x8, addend: 0x0, symName: __ZSt12__to_addressIPNSt8__detail15_Hash_node_baseEEPT_S4_, symObjAddr: 0x7640, symBinAddr: 0x1000087FC, symSize: 0x14 }
  - { offsetInCU: 0x114CE, offset: 0x114CE, size: 0x8, addend: 0x0, symName: __ZNSt15__new_allocatorINSt8__detail10_Hash_nodeISt4pairIKNSt7__cxx1112basic_stringIcSt11char_traitsIcESaIcEEEiELb1EEEE10deallocateEPSB_m, symObjAddr: 0x7604, symBinAddr: 0x1000087C0, symSize: 0x3C }
  - { offsetInCU: 0x115E0, offset: 0x115E0, size: 0x8, addend: 0x0, symName: __ZNSt4pairIKNSt7__cxx1112basic_stringIcSt11char_traitsIcESaIcEEEiEC1IJOS5_EJEEESt21piecewise_construct_tSt5tupleIJDpT_EESB_IJDpT0_EE, symObjAddr: 0x75C8, symBinAddr: 0x100008784, symSize: 0x3C }
  - { offsetInCU: 0x116B5, offset: 0x116B5, size: 0x8, addend: 0x0, symName: __ZNSt4pairIKNSt7__cxx1112basic_stringIcSt11char_traitsIcESaIcEEEiEC1IJOS5_EJLm0EEJEJEEERSt5tupleIJDpT_EERSA_IJDpT1_EESt12_Index_tupleIJXspT0_EEESJ_IJXspT2_EEE, symObjAddr: 0x7574, symBinAddr: 0x100008730, symSize: 0x54 }
  - { offsetInCU: 0x11689, offset: 0x11689, size: 0x8, addend: 0x0, symName: __ZNSt10_Head_baseILm0EONSt7__cxx1112basic_stringIcSt11char_traitsIcESaIcEEELb0EE7_M_headERS7_, symObjAddr: 0x755C, symBinAddr: 0x100008718, symSize: 0x18 }
  - { offsetInCU: 0x116B0, offset: 0x116B0, size: 0x8, addend: 0x0, symName: __ZNSt11_Tuple_implILm0EJONSt7__cxx1112basic_stringIcSt11char_traitsIcESaIcEEEEE7_M_headERS7_, symObjAddr: 0x7540, symBinAddr: 0x1000086FC, symSize: 0x1C }
  - { offsetInCU: 0x116D9, offset: 0x116D9, size: 0x8, addend: 0x0, symName: __ZSt12__get_helperILm0EONSt7__cxx1112basic_stringIcSt11char_traitsIcESaIcEEEJEERT0_RSt11_Tuple_implIXT_EJS7_DpT1_EE, symObjAddr: 0x7524, symBinAddr: 0x1000086E0, symSize: 0x1C }
  - { offsetInCU: 0x1171A, offset: 0x1171A, size: 0x8, addend: 0x0, symName: __ZSt3getILm0EJONSt7__cxx1112basic_stringIcSt11char_traitsIcESaIcEEEEERNSt13tuple_elementIXT_ESt5tupleIJDpT0_EEE4typeERSB_, symObjAddr: 0x7508, symBinAddr: 0x1000086C4, symSize: 0x1C }
  - { offsetInCU: 0x117D7, offset: 0x117D7, size: 0x8, addend: 0x0, symName: __ZNSt11_Tuple_implILm0EJONSt7__cxx1112basic_stringIcSt11char_traitsIcESaIcEEEEEC2EOS7_, symObjAddr: 0x74E0, symBinAddr: 0x10000869C, symSize: 0x28 }
  - { offsetInCU: 0x117B3, offset: 0x117B3, size: 0x8, addend: 0x0, symName: __ZNKSt8equal_toINSt7__cxx1112basic_stringIcSt11char_traitsIcESaIcEEEEclERKS5_S8_, symObjAddr: 0x74B8, symBinAddr: 0x100008674, symSize: 0x28 }
  - { offsetInCU: 0x11808, offset: 0x11808, size: 0x8, addend: 0x0, symName: __ZNKSt8__detail10_Select1stclIRKSt4pairIKNSt7__cxx1112basic_stringIcSt11char_traitsIcESaIcEEEiEEEONS0_10__1st_typeIT_E4typeEOSE_, symObjAddr: 0x7498, symBinAddr: 0x100008654, symSize: 0x20 }
  - { offsetInCU: 0x1185E, offset: 0x1185E, size: 0x8, addend: 0x0, symName: __ZNKSt8__detail15_Hashtable_baseINSt7__cxx1112basic_stringIcSt11char_traitsIcESaIcEEESt4pairIKS6_iENS_10_Select1stESt8equal_toIS6_ESt4hashIS6_ENS_18_Mod_range_hashingENS_20_Default_ranged_hashENS_17_Hashtable_traitsILb1ELb0ELb1EEEE5_M_eqEv, symObjAddr: 0x747C, symBinAddr: 0x100008638, symSize: 0x1C }
  - { offsetInCU: 0x11886, offset: 0x11886, size: 0x8, addend: 0x0, symName: __ZNSt15__new_allocatorIPNSt8__detail15_Hash_node_baseEE10deallocateEPS2_m, symObjAddr: 0x744C, symBinAddr: 0x100008608, symSize: 0x30 }
  - { offsetInCU: 0x118CE, offset: 0x118CE, size: 0x8, addend: 0x0, symName: __ZSt11__addressofIPNSt8__detail15_Hash_node_baseEEPT_RS3_, symObjAddr: 0x7438, symBinAddr: 0x1000085F4, symSize: 0x14 }
  - { offsetInCU: 0x118FE, offset: 0x118FE, size: 0x8, addend: 0x0, symName: __ZSt9addressofINSt8__detail10_Hash_nodeISt4pairIKNSt7__cxx1112basic_stringIcSt11char_traitsIcESaIcEEEiELb1EEEEPT_RSC_, symObjAddr: 0x741C, symBinAddr: 0x1000085D8, symSize: 0x1C }
  - { offsetInCU: 0x119A5, offset: 0x119A5, size: 0x8, addend: 0x0, symName: __ZSt4moveIR13ExerciseEntryEONSt16remove_referenceIT_E4typeEOS3_, symObjAddr: 0x7408, symBinAddr: 0x1000085C4, symSize: 0x14 }
  - { offsetInCU: 0x11A4C, offset: 0x11A4C, size: 0x8, addend: 0x0, symName: __ZSt4moveIRSt6vectorI13ExerciseEntrySaIS1_EEEONSt16remove_referenceIT_E4typeEOS6_, symObjAddr: 0x73F4, symBinAddr: 0x1000085B0, symSize: 0x14 }
  - { offsetInCU: 0x11AD0, offset: 0x11AD0, size: 0x8, addend: 0x0, symName: __ZNSt12_Vector_baseI13ExerciseEntrySaIS0_EED2Ev, symObjAddr: 0x7390, symBinAddr: 0x10000854C, symSize: 0x64 }
  - { offsetInCU: 0x11AE6, offset: 0x11AE6, size: 0x8, addend: 0x0, symName: __ZSt12construct_atISt6vectorI13ExerciseEntrySaIS1_EEJEEDTgsnwcvPvLi0E_T_pispcl7declvalIT0_EEEEPS5_DpOS6_, symObjAddr: 0x734C, symBinAddr: 0x100008508, symSize: 0x44 }
  - { offsetInCU: 0x11B6D, offset: 0x11B6D, size: 0x8, addend: 0x0, symName: __ZNSt6vectorI13ExerciseEntrySaIS0_EED1Ev, symObjAddr: 0x72F0, symBinAddr: 0x1000084AC, symSize: 0x5C }
  - { offsetInCU: 0x11C17, offset: 0x11C17, size: 0x8, addend: 0x0, symName: __ZSt4moveIR8ExerciseEONSt16remove_referenceIT_E4typeEOS3_, symObjAddr: 0x72DC, symBinAddr: 0x100008498, symSize: 0x14 }
  - { offsetInCU: 0x11C47, offset: 0x11C47, size: 0x8, addend: 0x0, symName: __ZSt10destroy_atI8ExerciseEvPT_, symObjAddr: 0x72BC, symBinAddr: 0x100008478, symSize: 0x20 }
  - { offsetInCU: 0x11C7B, offset: 0x11C7B, size: 0x8, addend: 0x0, symName: __ZNSt8__detail16_Hashtable_allocISaINS_10_Hash_nodeISt4pairIKNSt7__cxx1112basic_stringIcSt11char_traitsIcESaIcEEEiELb1EEEEE19_M_allocate_bucketsEm, symObjAddr: 0x71BC, symBinAddr: 0x100008378, symSize: 0x100 }
  - { offsetInCU: 0x11E20, offset: 0x11E20, size: 0x8, addend: 0x0, symName: __ZSt12construct_atISt4pairIKNSt7__cxx1112basic_stringIcSt11char_traitsIcESaIcEEEiEJRKSt21piecewise_construct_tSt5tupleIJOS6_EESC_IJEEEEDTgsnwcvPvLi0E_T_pispcl7declvalIT0_EEEEPSH_DpOSI_, symObjAddr: 0x7104, symBinAddr: 0x1000082C0, symSize: 0xB8 }
  - { offsetInCU: 0x11EF1, offset: 0x11EF1, size: 0x8, addend: 0x0, symName: __ZNSt5tupleIJONSt7__cxx1112basic_stringIcSt11char_traitsIcESaIcEEEEEC1EOS7_, symObjAddr: 0x70DC, symBinAddr: 0x100008298, symSize: 0x28 }
  - { offsetInCU: 0x11F60, offset: 0x11F60, size: 0x8, addend: 0x0, symName: __ZNSt10_Head_baseILm0EONSt7__cxx1112basic_stringIcSt11char_traitsIcESaIcEEELb0EEC2IS5_EEOT_, symObjAddr: 0x70AC, symBinAddr: 0x100008268, symSize: 0x30 }
  - { offsetInCU: 0x11F40, offset: 0x11F40, size: 0x8, addend: 0x0, symName: __ZNKSt8__detail15_Hashtable_baseINSt7__cxx1112basic_stringIcSt11char_traitsIcESaIcEEESt4pairIKS6_iENS_10_Select1stESt8equal_toIS6_ESt4hashIS6_ENS_18_Mod_range_hashingENS_20_Default_ranged_hashENS_17_Hashtable_traitsILb1ELb0ELb1EEEE13_M_key_equalsERS8_RKNS_16_Hash_node_valueIS9_Lb1EEE, symObjAddr: 0x7040, symBinAddr: 0x1000081FC, symSize: 0x6C }
  - { offsetInCU: 0x11FCE, offset: 0x11FCE, size: 0x8, addend: 0x0, symName: __ZNSt8__detail15_Hashtable_baseINSt7__cxx1112basic_stringIcSt11char_traitsIcESaIcEEESt4pairIKS6_iENS_10_Select1stESt8equal_toIS6_ESt4hashIS6_ENS_18_Mod_range_hashingENS_20_Default_ranged_hashENS_17_Hashtable_traitsILb1ELb0ELb1EEEE9_S_equalsEmRKNS_21_Hash_node_code_cacheILb1EEE, symObjAddr: 0x7014, symBinAddr: 0x1000081D0, symSize: 0x2C }
  - { offsetInCU: 0x1204E, offset: 0x1204E, size: 0x8, addend: 0x0, symName: __ZSt9addressofIPNSt8__detail15_Hash_node_baseEEPT_RS3_, symObjAddr: 0x6FF8, symBinAddr: 0x1000081B4, symSize: 0x1C }
  - { offsetInCU: 0x1207E, offset: 0x1207E, size: 0x8, addend: 0x0, symName: __ZNSt19__ptr_traits_ptr_toIPNSt8__detail10_Hash_nodeISt4pairIKNSt7__cxx1112basic_stringIcSt11char_traitsIcESaIcEEEiELb1EEESB_Lb0EE10pointer_toERSB_, symObjAddr: 0x6FDC, symBinAddr: 0x100008198, symSize: 0x1C }
  - { offsetInCU: 0x120A5, offset: 0x120A5, size: 0x8, addend: 0x0, symName: __ZSt10destroy_atISt4pairIKNSt7__cxx1112basic_stringIcSt11char_traitsIcESaIcEEEiEEvPT_, symObjAddr: 0x6FBC, symBinAddr: 0x100008178, symSize: 0x20 }
  - { offsetInCU: 0x12144, offset: 0x12144, size: 0x8, addend: 0x0, symName: __ZNSt4pairIKNSt7__cxx1112basic_stringIcSt11char_traitsIcESaIcEEEiED1Ev, symObjAddr: 0x6F9C, symBinAddr: 0x100008158, symSize: 0x20 }
  - { offsetInCU: 0x12123, offset: 0x12123, size: 0x8, addend: 0x0, symName: __ZSt19__relocate_object_aI13ExerciseEntryS0_SaIS0_EEvPT_PT0_RT1_, symObjAddr: 0x6F24, symBinAddr: 0x1000080E0, symSize: 0x78 }
  - { offsetInCU: 0x121ED, offset: 0x121ED, size: 0x8, addend: 0x0, symName: __ZSt11__addressofI13ExerciseEntryEPT_RS1_, symObjAddr: 0x6F10, symBinAddr: 0x1000080CC, symSize: 0x14 }
  - { offsetInCU: 0x12221, offset: 0x12221, size: 0x8, addend: 0x0, symName: __ZNSt15__new_allocatorI13ExerciseEntryE8allocateEmPKv, symObjAddr: 0x6E78, symBinAddr: 0x100008034, symSize: 0x98 }
  - { offsetInCU: 0x122A6, offset: 0x122A6, size: 0x8, addend: 0x0, symName: __ZSt19__relocate_object_aISt6vectorI13ExerciseEntrySaIS1_EES3_SaIS3_EEvPT_PT0_RT1_, symObjAddr: 0x6E00, symBinAddr: 0x100007FBC, symSize: 0x78 }
  - { offsetInCU: 0x12374, offset: 0x12374, size: 0x8, addend: 0x0, symName: __ZNSt15__new_allocatorISt6vectorI13ExerciseEntrySaIS1_EEE8allocateEmPKv, symObjAddr: 0x6D70, symBinAddr: 0x100007F2C, symSize: 0x90 }
  - { offsetInCU: 0x123F9, offset: 0x123F9, size: 0x8, addend: 0x0, symName: __ZSt10_ConstructISt6vectorI13ExerciseEntrySaIS1_EEJEEvPT_DpOT0_, symObjAddr: 0x6D24, symBinAddr: 0x100007EE0, symSize: 0x4C }
  - { offsetInCU: 0x1248F, offset: 0x1248F, size: 0x8, addend: 0x0, symName: __ZNSt6vectorI13ExerciseEntrySaIS0_EEC1Ev, symObjAddr: 0x6D04, symBinAddr: 0x100007EC0, symSize: 0x20 }
  - { offsetInCU: 0x124D6, offset: 0x124D6, size: 0x8, addend: 0x0, symName: __ZNSt12_Vector_baseI13ExerciseEntrySaIS0_EEC2Ev, symObjAddr: 0x6CE4, symBinAddr: 0x100007EA0, symSize: 0x20 }
  - { offsetInCU: 0x12531, offset: 0x12531, size: 0x8, addend: 0x0, symName: __ZNSt12_Vector_baseI13ExerciseEntrySaIS0_EE12_Vector_implD1Ev, symObjAddr: 0x6CC4, symBinAddr: 0x100007E80, symSize: 0x20 }
  - { offsetInCU: 0x12599, offset: 0x12599, size: 0x8, addend: 0x0, symName: __ZNSt12_Vector_baseI13ExerciseEntrySaIS0_EE17_Vector_impl_dataC2Ev, symObjAddr: 0x6C98, symBinAddr: 0x100007E54, symSize: 0x2C }
  - { offsetInCU: 0x12662, offset: 0x12662, size: 0x8, addend: 0x0, symName: __ZNSt12_Vector_baseI13ExerciseEntrySaIS0_EE12_Vector_implC1EvQ26is_default_constructible_vIN9__gnu_cxx14__alloc_traitsIT0_NS6_10value_typeEE6rebindIT_E5otherEE, symObjAddr: 0x6C60, symBinAddr: 0x100007E1C, symSize: 0x38 }
  - { offsetInCU: 0x1262E, offset: 0x1262E, size: 0x8, addend: 0x0, symName: __ZSt10destroy_atISt6vectorI13ExerciseEntrySaIS1_EEEvPT_, symObjAddr: 0x6C40, symBinAddr: 0x100007DFC, symSize: 0x20 }
  - { offsetInCU: 0x12662, offset: 0x12662, size: 0x8, addend: 0x0, symName: __ZNSt15__new_allocatorIcE8allocateEmPKv, symObjAddr: 0x6BDC, symBinAddr: 0x100007D98, symSize: 0x64 }
  - { offsetInCU: 0x126E7, offset: 0x126E7, size: 0x8, addend: 0x0, symName: __ZSt19__relocate_object_aI8ExerciseS0_SaIS0_EEvPT_PT0_RT1_, symObjAddr: 0x6B64, symBinAddr: 0x100007D20, symSize: 0x78 }
  - { offsetInCU: 0x127B5, offset: 0x127B5, size: 0x8, addend: 0x0, symName: __ZNSt15__new_allocatorI8ExerciseE8allocateEmPKv, symObjAddr: 0x6AE8, symBinAddr: 0x100007CA4, symSize: 0x7C }
  - { offsetInCU: 0x1283E, offset: 0x1283E, size: 0x8, addend: 0x0, symName: __ZNKSt4lessIPKcEclES1_S1_, symObjAddr: 0x6A94, symBinAddr: 0x100007C50, symSize: 0x54 }
  - { offsetInCU: 0x128A2, offset: 0x128A2, size: 0x8, addend: 0x0, symName: __ZNSt15__new_allocatorIcE10deallocateEPcm, symObjAddr: 0x6A6C, symBinAddr: 0x100007C28, symSize: 0x28 }
  - { offsetInCU: 0x128ED, offset: 0x128ED, size: 0x8, addend: 0x0, symName: __ZN9__gnu_cxx16__aligned_bufferISt4pairIKNSt7__cxx1112basic_stringIcSt11char_traitsIcESaIcEEEiEE7_M_addrEv, symObjAddr: 0x6A58, symBinAddr: 0x100007C14, symSize: 0x14 }
  - { offsetInCU: 0x12910, offset: 0x12910, size: 0x8, addend: 0x0, symName: __ZSt8_DestroyI8ExerciseEvPT_, symObjAddr: 0x6A38, symBinAddr: 0x100007BF4, symSize: 0x20 }
  - { offsetInCU: 0x12940, offset: 0x12940, size: 0x8, addend: 0x0, symName: __ZSt11__addressofI8ExerciseEPT_RS1_, symObjAddr: 0x6A24, symBinAddr: 0x100007BE0, symSize: 0x14 }
  - { offsetInCU: 0x12974, offset: 0x12974, size: 0x8, addend: 0x0, symName: __ZNKSt8__detail15_Hash_code_baseINSt7__cxx1112basic_stringIcSt11char_traitsIcESaIcEEESt4pairIKS6_iENS_10_Select1stESt4hashIS6_ENS_18_Mod_range_hashingENS_20_Default_ranged_hashELb1EE15_M_bucket_indexERKNS_16_Hash_node_valueIS9_Lb1EEEm, symObjAddr: 0x69F4, symBinAddr: 0x100007BB0, symSize: 0x30 }
  - { offsetInCU: 0x129BE, offset: 0x129BE, size: 0x8, addend: 0x0, symName: __ZNSt10_HashtableINSt7__cxx1112basic_stringIcSt11char_traitsIcESaIcEEESt4pairIKS5_iESaIS8_ENSt8__detail10_Select1stESt8equal_toIS5_ESt4hashIS5_ENSA_18_Mod_range_hashingENSA_20_Default_ranged_hashENSA_20_Prime_rehash_policyENSA_17_Hashtable_traitsILb1ELb0ELb1EEEE19_M_allocate_bucketsEm, symObjAddr: 0x699C, symBinAddr: 0x100007B58, symSize: 0x58 }
  - { offsetInCU: 0x129F3, offset: 0x129F3, size: 0x8, addend: 0x0, symName: __ZSt11__addressofINSt8__detail20_Prime_rehash_policyEEPT_RS2_, symObjAddr: 0x6988, symBinAddr: 0x100007B44, symSize: 0x14 }
  - { offsetInCU: 0x12AAD, offset: 0x12AAD, size: 0x8, addend: 0x0, symName: __ZSt12__to_addressINSt8__detail10_Hash_nodeISt4pairIKNSt7__cxx1112basic_stringIcSt11char_traitsIcESaIcEEEiELb1EEEEPT_SD_, symObjAddr: 0x6974, symBinAddr: 0x100007B30, symSize: 0x14 }
  - { offsetInCU: 0x12AE1, offset: 0x12AE1, size: 0x8, addend: 0x0, symName: __ZNSt15__new_allocatorINSt8__detail10_Hash_nodeISt4pairIKNSt7__cxx1112basic_stringIcSt11char_traitsIcESaIcEEEiELb1EEEE8allocateEmPKv, symObjAddr: 0x68DC, symBinAddr: 0x100007A98, symSize: 0x98 }
  - { offsetInCU: 0x12BF2, offset: 0x12BF2, size: 0x8, addend: 0x0, symName: __ZNSt11_Tuple_implILm0EJONSt7__cxx1112basic_stringIcSt11char_traitsIcESaIcEEEEEC2IS5_EEOT_, symObjAddr: 0x68A0, symBinAddr: 0x100007A5C, symSize: 0x3C }
  - { offsetInCU: 0x12BD3, offset: 0x12BD3, size: 0x8, addend: 0x0, symName: __ZNKSt8__detail15_Hashtable_baseINSt7__cxx1112basic_stringIcSt11char_traitsIcESaIcEEESt4pairIKS6_iENS_10_Select1stESt8equal_toIS6_ESt4hashIS6_ENS_18_Mod_range_hashingENS_20_Default_ranged_hashENS_17_Hashtable_traitsILb1ELb0ELb1EEEE9_M_equalsERS8_mRKNS_16_Hash_node_valueIS9_Lb1EEE, symObjAddr: 0x6838, symBinAddr: 0x1000079F4, symSize: 0x68 }
  - { offsetInCU: 0x12C2E, offset: 0x12C2E, size: 0x8, addend: 0x0, symName: __ZNKSt8__detail21_Hashtable_ebo_helperILi1ESt4hashINSt7__cxx1112basic_stringIcSt11char_traitsIcESaIcEEEELb1EE7_M_cgetEv, symObjAddr: 0x6824, symBinAddr: 0x1000079E0, symSize: 0x14 }
  - { offsetInCU: 0x12CC8, offset: 0x12CC8, size: 0x8, addend: 0x0, symName: __ZNSt19__ptr_traits_ptr_toIPPNSt8__detail15_Hash_node_baseES2_Lb0EE10pointer_toERS2_, symObjAddr: 0x6808, symBinAddr: 0x1000079C4, symSize: 0x1C }
  - { offsetInCU: 0x12CF3, offset: 0x12CF3, size: 0x8, addend: 0x0, symName: __ZNSt8__detail16_Hashtable_allocISaINS_10_Hash_nodeISt4pairIKNSt7__cxx1112basic_stringIcSt11char_traitsIcESaIcEEEiELb1EEEEE22_M_deallocate_node_ptrEPSB_, symObjAddr: 0x677C, symBinAddr: 0x100007938, symSize: 0x8C }
  - { offsetInCU: 0x12DED, offset: 0x12DED, size: 0x8, addend: 0x0, symName: __ZSt14__relocate_a_1IP13ExerciseEntryS1_SaIS0_EET0_T_S4_S3_RT1_, symObjAddr: 0x66F8, symBinAddr: 0x1000078B4, symSize: 0x84 }
  - { offsetInCU: 0x12E75, offset: 0x12E75, size: 0x8, addend: 0x0, symName: __ZSt12__niter_baseIP13ExerciseEntryET_S2_, symObjAddr: 0x66E4, symBinAddr: 0x1000078A0, symSize: 0x14 }
  - { offsetInCU: 0x12EAB, offset: 0x12EAB, size: 0x8, addend: 0x0, symName: __ZNSt15__new_allocatorI13ExerciseEntryE10deallocateEPS0_m, symObjAddr: 0x66A8, symBinAddr: 0x100007864, symSize: 0x3C }
  - { offsetInCU: 0x12F10, offset: 0x12F10, size: 0x8, addend: 0x0, symName: __ZSt14__relocate_a_1IPSt6vectorI13ExerciseEntrySaIS1_EES4_SaIS3_EET0_T_S7_S6_RT1_, symObjAddr: 0x6624, symBinAddr: 0x1000077E0, symSize: 0x84 }
  - { offsetInCU: 0x12F98, offset: 0x12F98, size: 0x8, addend: 0x0, symName: __ZSt12__niter_baseIPSt6vectorI13ExerciseEntrySaIS1_EEET_S5_, symObjAddr: 0x6610, symBinAddr: 0x1000077CC, symSize: 0x14 }
  - { offsetInCU: 0x12FED, offset: 0x12FED, size: 0x8, addend: 0x0, symName: __ZNSt27__uninitialized_default_n_1ILb0EE18__uninit_default_nIPSt6vectorI13ExerciseEntrySaIS3_EEmEET_S7_T0_, symObjAddr: 0x65B8, symBinAddr: 0x100007774, symSize: 0x58 }
  - { offsetInCU: 0x1304A, offset: 0x1304A, size: 0x8, addend: 0x0, symName: __ZSt8_DestroyISt6vectorI13ExerciseEntrySaIS1_EEEvPT_, symObjAddr: 0x6598, symBinAddr: 0x100007754, symSize: 0x20 }
  - { offsetInCU: 0x1307A, offset: 0x1307A, size: 0x8, addend: 0x0, symName: __ZSt11__addressofISt6vectorI13ExerciseEntrySaIS1_EEEPT_RS4_, symObjAddr: 0x6584, symBinAddr: 0x100007740, symSize: 0x14 }
  - { offsetInCU: 0x130AE, offset: 0x130AE, size: 0x8, addend: 0x0, symName: __ZNSt15__new_allocatorISt6vectorI13ExerciseEntrySaIS1_EEE10deallocateEPS3_m, symObjAddr: 0x6548, symBinAddr: 0x100007704, symSize: 0x3C }
  - { offsetInCU: 0x13113, offset: 0x13113, size: 0x8, addend: 0x0, symName: __ZSt14__relocate_a_1IP8ExerciseS1_SaIS0_EET0_T_S4_S3_RT1_, symObjAddr: 0x64C4, symBinAddr: 0x100007680, symSize: 0x84 }
  - { offsetInCU: 0x1319B, offset: 0x1319B, size: 0x8, addend: 0x0, symName: __ZSt12__niter_baseIP8ExerciseET_S2_, symObjAddr: 0x64B0, symBinAddr: 0x10000766C, symSize: 0x14 }
  - { offsetInCU: 0x131D1, offset: 0x131D1, size: 0x8, addend: 0x0, symName: __ZNSt15__new_allocatorI8ExerciseE10deallocateEPS0_m, symObjAddr: 0x6480, symBinAddr: 0x10000763C, symSize: 0x30 }
  - { offsetInCU: 0x13236, offset: 0x13236, size: 0x8, addend: 0x0, symName: __ZNSt7__cxx1112basic_stringIcSt11char_traitsIcESaIcEE7_S_moveEPcPKcm, symObjAddr: 0x6434, symBinAddr: 0x1000075F0, symSize: 0x4C }
  - { offsetInCU: 0x13285, offset: 0x13285, size: 0x8, addend: 0x0, symName: __ZNKSt7__cxx1112basic_stringIcSt11char_traitsIcESaIcEE11_M_disjunctEPKc, symObjAddr: 0x63B0, symBinAddr: 0x10000756C, symSize: 0x84 }
  - { offsetInCU: 0x132BA, offset: 0x132BA, size: 0x8, addend: 0x0, symName: __ZSt11__addressofIKcEPT_RS1_, symObjAddr: 0x639C, symBinAddr: 0x100007558, symSize: 0x14 }
  - { offsetInCU: 0x1331E, offset: 0x1331E, size: 0x8, addend: 0x0, symName: __ZN9__gnu_cxx16__aligned_bufferISt4pairIKNSt7__cxx1112basic_stringIcSt11char_traitsIcESaIcEEEiEE6_M_ptrEv, symObjAddr: 0x6380, symBinAddr: 0x10000753C, symSize: 0x1C }
  - { offsetInCU: 0x133F0, offset: 0x133F0, size: 0x8, addend: 0x0, symName: __ZNSt8__detail19_Node_iterator_baseISt4pairIKNSt7__cxx1112basic_stringIcSt11char_traitsIcESaIcEEEiELb1EEC2EPNS_10_Hash_nodeIS9_Lb1EEE, symObjAddr: 0x635C, symBinAddr: 0x100007518, symSize: 0x24 }
  - { offsetInCU: 0x13399, offset: 0x13399, size: 0x8, addend: 0x0, symName: __ZNSt12_Destroy_auxILb0EE9__destroyIP8ExerciseEEvT_S4_, symObjAddr: 0x6310, symBinAddr: 0x1000074CC, symSize: 0x4C }
  - { offsetInCU: 0x133DC, offset: 0x133DC, size: 0x8, addend: 0x0, symName: __ZNKSt10_HashtableINSt7__cxx1112basic_stringIcSt11char_traitsIcESaIcEEESt4pairIKS5_iESaIS8_ENSt8__detail10_Select1stESt8equal_toIS5_ESt4hashIS5_ENSA_18_Mod_range_hashingENSA_20_Default_ranged_hashENSA_20_Prime_rehash_policyENSA_17_Hashtable_traitsILb1ELb0ELb1EEEE15_M_bucket_indexERKNSA_16_Hash_node_valueIS8_Lb1EEE, symObjAddr: 0x62E0, symBinAddr: 0x10000749C, symSize: 0x30 }
  - { offsetInCU: 0x13415, offset: 0x13415, size: 0x8, addend: 0x0, symName: __ZNSt10_HashtableINSt7__cxx1112basic_stringIcSt11char_traitsIcESaIcEEESt4pairIKS5_iESaIS8_ENSt8__detail10_Select1stESt8equal_toIS5_ESt4hashIS5_ENSA_18_Mod_range_hashingENSA_20_Default_ranged_hashENSA_20_Prime_rehash_policyENSA_17_Hashtable_traitsILb1ELb0ELb1EEEE22_M_insert_bucket_beginEmPNSA_10_Hash_nodeIS8_Lb1EEE, symObjAddr: 0x61D4, symBinAddr: 0x100007390, symSize: 0x10C }
  - { offsetInCU: 0x1345F, offset: 0x1345F, size: 0x8, addend: 0x0, symName: __ZNKSt8__detail15_Hash_code_baseINSt7__cxx1112basic_stringIcSt11char_traitsIcESaIcEEESt4pairIKS6_iENS_10_Select1stESt4hashIS6_ENS_18_Mod_range_hashingENS_20_Default_ranged_hashELb1EE13_M_store_codeERNS_21_Hash_node_code_cacheILb1EEEm, symObjAddr: 0x61AC, symBinAddr: 0x100007368, symSize: 0x28 }
  - { offsetInCU: 0x134A9, offset: 0x134A9, size: 0x8, addend: 0x0, symName: __ZNSt10_HashtableINSt7__cxx1112basic_stringIcSt11char_traitsIcESaIcEEESt4pairIKS5_iESaIS8_ENSt8__detail10_Select1stESt8equal_toIS5_ESt4hashIS5_ENSA_18_Mod_range_hashingENSA_20_Default_ranged_hashENSA_20_Prime_rehash_policyENSA_17_Hashtable_traitsILb1ELb0ELb1EEEE9_M_rehashEmSt17integral_constantIbLb1EE, symObjAddr: 0x6040, symBinAddr: 0x1000071FC, symSize: 0x16C }
  - { offsetInCU: 0x135B6, offset: 0x135B6, size: 0x8, addend: 0x0, symName: __ZNSt8__detail17_RehashStateGuardINS_20_Prime_rehash_policyEED1Ev, symObjAddr: 0x5FFC, symBinAddr: 0x1000071B8, symSize: 0x44 }
  - { offsetInCU: 0x13607, offset: 0x13607, size: 0x8, addend: 0x0, symName: __ZNSt8__detail17_RehashStateGuardINS_20_Prime_rehash_policyEEC1ERS1_, symObjAddr: 0x5FB8, symBinAddr: 0x100007174, symSize: 0x44 }
  - { offsetInCU: 0x135F5, offset: 0x135F5, size: 0x8, addend: 0x0, symName: __ZNSt8__detail16_Hashtable_allocISaINS_10_Hash_nodeISt4pairIKNSt7__cxx1112basic_stringIcSt11char_traitsIcESaIcEEEiELb1EEEEE16_M_allocate_nodeIJRKSt21piecewise_construct_tSt5tupleIJOS8_EESI_IJEEEEEPSB_DpOT_, symObjAddr: 0x5D98, symBinAddr: 0x100006F54, symSize: 0x220 }
  - { offsetInCU: 0x13878, offset: 0x13878, size: 0x8, addend: 0x0, symName: __ZNSt8__detail10_Hash_nodeISt4pairIKNSt7__cxx1112basic_stringIcSt11char_traitsIcESaIcEEEiELb1EEC1Ev, symObjAddr: 0x5D78, symBinAddr: 0x100006F34, symSize: 0x20 }
  - { offsetInCU: 0x13887, offset: 0x13887, size: 0x8, addend: 0x0, symName: __ZSt7forwardISt5tupleIJEEEOT_RNSt16remove_referenceIS2_E4typeE, symObjAddr: 0x5D64, symBinAddr: 0x100006F20, symSize: 0x14 }
  - { offsetInCU: 0x138BD, offset: 0x138BD, size: 0x8, addend: 0x0, symName: __ZSt7forwardISt5tupleIJONSt7__cxx1112basic_stringIcSt11char_traitsIcESaIcEEEEEEOT_RNSt16remove_referenceIS9_E4typeE, symObjAddr: 0x5D50, symBinAddr: 0x100006F0C, symSize: 0x14 }
  - { offsetInCU: 0x138F3, offset: 0x138F3, size: 0x8, addend: 0x0, symName: __ZSt7forwardIRKSt21piecewise_construct_tEOT_RNSt16remove_referenceIS3_E4typeE, symObjAddr: 0x5D3C, symBinAddr: 0x100006EF8, symSize: 0x14 }
  - { offsetInCU: 0x139A8, offset: 0x139A8, size: 0x8, addend: 0x0, symName: __ZNSt5tupleIJONSt7__cxx1112basic_stringIcSt11char_traitsIcESaIcEEEEEC1IJS5_EEEDpOT_, symObjAddr: 0x5D00, symBinAddr: 0x100006EBC, symSize: 0x3C }
  - { offsetInCU: 0x1399B, offset: 0x1399B, size: 0x8, addend: 0x0, symName: __ZSt7forwardINSt7__cxx1112basic_stringIcSt11char_traitsIcESaIcEEEEOT_RNSt16remove_referenceIS6_E4typeE, symObjAddr: 0x5CEC, symBinAddr: 0x100006EA8, symSize: 0x14 }
  - { offsetInCU: 0x139CF, offset: 0x139CF, size: 0x8, addend: 0x0, symName: __ZNKSt10_HashtableINSt7__cxx1112basic_stringIcSt11char_traitsIcESaIcEEESt4pairIKS5_iESaIS8_ENSt8__detail10_Select1stESt8equal_toIS5_ESt4hashIS5_ENSA_18_Mod_range_hashingENSA_20_Default_ranged_hashENSA_20_Prime_rehash_policyENSA_17_Hashtable_traitsILb1ELb0ELb1EEEE19_M_find_before_nodeEmRS7_m, symObjAddr: 0x5BF0, symBinAddr: 0x100006DAC, symSize: 0xFC }
  - { offsetInCU: 0x13A5F, offset: 0x13A5F, size: 0x8, addend: 0x0, symName: __ZNKSt8__detail15_Hash_code_baseINSt7__cxx1112basic_stringIcSt11char_traitsIcESaIcEEESt4pairIKS6_iENS_10_Select1stESt4hashIS6_ENS_18_Mod_range_hashingENS_20_Default_ranged_hashELb1EE15_M_bucket_indexEmm, symObjAddr: 0x5BC4, symBinAddr: 0x100006D80, symSize: 0x2C }
  - { offsetInCU: 0x13AA9, offset: 0x13AA9, size: 0x8, addend: 0x0, symName: __ZNKSt15__str_hash_baseIcSaIcENSt7__cxx1112basic_stringIcSt11char_traitsIcES0_EEEclERKS5_, symObjAddr: 0x5B7C, symBinAddr: 0x100006D38, symSize: 0x48 }
  - { offsetInCU: 0x13AE2, offset: 0x13AE2, size: 0x8, addend: 0x0, symName: __ZNKSt8__detail15_Hash_code_baseINSt7__cxx1112basic_stringIcSt11char_traitsIcESaIcEEESt4pairIKS6_iENS_10_Select1stESt4hashIS6_ENS_18_Mod_range_hashingENS_20_Default_ranged_hashELb1EE7_M_hashEv, symObjAddr: 0x5B60, symBinAddr: 0x100006D1C, symSize: 0x1C }
  - { offsetInCU: 0x13B0A, offset: 0x13B0A, size: 0x8, addend: 0x0, symName: __ZNSt8__detail16_Hashtable_allocISaINS_10_Hash_nodeISt4pairIKNSt7__cxx1112basic_stringIcSt11char_traitsIcESaIcEEEiELb1EEEEE21_M_deallocate_bucketsEPPNS_15_Hash_node_baseEm, symObjAddr: 0x5ABC, symBinAddr: 0x100006C78, symSize: 0xA4 }
  - { offsetInCU: 0x13C6A, offset: 0x13C6A, size: 0x8, addend: 0x0, symName: __ZNKSt10_HashtableINSt7__cxx1112basic_stringIcSt11char_traitsIcESaIcEEESt4pairIKS5_iESaIS8_ENSt8__detail10_Select1stESt8equal_toIS5_ESt4hashIS5_ENSA_18_Mod_range_hashingENSA_20_Default_ranged_hashENSA_20_Prime_rehash_policyENSA_17_Hashtable_traitsILb1ELb0ELb1EEEE21_M_uses_single_bucketEPPNSA_15_Hash_node_baseE, symObjAddr: 0x5A80, symBinAddr: 0x100006C3C, symSize: 0x3C }
  - { offsetInCU: 0x13CA3, offset: 0x13CA3, size: 0x8, addend: 0x0, symName: __ZNSt8__detail16_Hashtable_allocISaINS_10_Hash_nodeISt4pairIKNSt7__cxx1112basic_stringIcSt11char_traitsIcESaIcEEEiELb1EEEEE18_M_deallocate_nodeEPSB_, symObjAddr: 0x5A18, symBinAddr: 0x100006BD4, symSize: 0x68 }
  - { offsetInCU: 0x13D29, offset: 0x13D29, size: 0x8, addend: 0x0, symName: __ZSt12__relocate_aIP13ExerciseEntryS1_SaIS0_EET0_T_S4_S3_RT1_, symObjAddr: 0x59BC, symBinAddr: 0x100006B78, symSize: 0x5C }
  - { offsetInCU: 0x13DF4, offset: 0x13DF4, size: 0x8, addend: 0x0, symName: __ZSt12__relocate_aIPSt6vectorI13ExerciseEntrySaIS1_EES4_SaIS3_EET0_T_S7_S6_RT1_, symObjAddr: 0x5960, symBinAddr: 0x100006B1C, symSize: 0x5C }
  - { offsetInCU: 0x13E8F, offset: 0x13E8F, size: 0x8, addend: 0x0, symName: __ZSt25__uninitialized_default_nIPSt6vectorI13ExerciseEntrySaIS1_EEmET_S5_T0_, symObjAddr: 0x5910, symBinAddr: 0x100006ACC, symSize: 0x50 }
  - { offsetInCU: 0x13EEC, offset: 0x13EEC, size: 0x8, addend: 0x0, symName: __ZNSt12_Destroy_auxILb0EE9__destroyIPSt6vectorI13ExerciseEntrySaIS3_EEEEvT_S7_, symObjAddr: 0x58C4, symBinAddr: 0x100006A80, symSize: 0x4C }
  - { offsetInCU: 0x13F7F, offset: 0x13F7F, size: 0x8, addend: 0x0, symName: __ZSt12__relocate_aIP8ExerciseS1_SaIS0_EET0_T_S4_S3_RT1_, symObjAddr: 0x5868, symBinAddr: 0x100006A24, symSize: 0x5C }
  - { offsetInCU: 0x14053, offset: 0x14053, size: 0x8, addend: 0x0, symName: __ZNSt7__cxx1112basic_stringIcSt11char_traitsIcESaIcEE9_M_mutateEmmPKcm, symObjAddr: 0x5710, symBinAddr: 0x1000068CC, symSize: 0x158 }
  - { offsetInCU: 0x140F3, offset: 0x140F3, size: 0x8, addend: 0x0, symName: __ZNKSt7__cxx1112basic_stringIcSt11char_traitsIcESaIcEE8_M_limitEmm, symObjAddr: 0x56A4, symBinAddr: 0x100006860, symSize: 0x6C }
  - { offsetInCU: 0x1414E, offset: 0x1414E, size: 0x8, addend: 0x0, symName: __ZNKSt7__cxx1112basic_stringIcSt11char_traitsIcESaIcEE8_M_checkEmPKc, symObjAddr: 0x562C, symBinAddr: 0x1000067E8, symSize: 0x78 }
  - { offsetInCU: 0x1419D, offset: 0x1419D, size: 0x8, addend: 0x0, symName: __ZNSt7__cxx1112basic_stringIcSt11char_traitsIcESaIcEE10_M_replaceEmmPKcm, symObjAddr: 0x53BC, symBinAddr: 0x100006578, symSize: 0x270 }
  - { offsetInCU: 0x142D4, offset: 0x142D4, size: 0x8, addend: 0x0, symName: __ZSt9addressofIKcEPT_RS1_, symObjAddr: 0x53A0, symBinAddr: 0x10000655C, symSize: 0x1C }
  - { offsetInCU: 0x14350, offset: 0x14350, size: 0x8, addend: 0x0, symName: __ZNKSt8__detail10_Hash_nodeISt4pairIKNSt7__cxx1112basic_stringIcSt11char_traitsIcESaIcEEEiELb1EE7_M_nextEv, symObjAddr: 0x5388, symBinAddr: 0x100006544, symSize: 0x18 }
  - { offsetInCU: 0x14421, offset: 0x14421, size: 0x8, addend: 0x0, symName: __ZNSt8__detail14_Node_iteratorISt4pairIKNSt7__cxx1112basic_stringIcSt11char_traitsIcESaIcEEEiELb0ELb1EEC1EPNS_10_Hash_nodeIS9_Lb1EEE, symObjAddr: 0x5360, symBinAddr: 0x10000651C, symSize: 0x28 }
  - { offsetInCU: 0x143CB, offset: 0x143CB, size: 0x8, addend: 0x0, symName: __ZSt8_DestroyIP8ExerciseEvT_S2_, symObjAddr: 0x531C, symBinAddr: 0x1000064D8, symSize: 0x44 }
  - { offsetInCU: 0x14427, offset: 0x14427, size: 0x8, addend: 0x0, symName: __ZNSt8__detail21_Hashtable_ebo_helperILi0ESaINS_10_Hash_nodeISt4pairIKNSt7__cxx1112basic_stringIcSt11char_traitsIcESaIcEEEiELb1EEEELb1EE6_M_getEv, symObjAddr: 0x5308, symBinAddr: 0x1000064C4, symSize: 0x14 }
  - { offsetInCU: 0x1444F, offset: 0x1444F, size: 0x8, addend: 0x0, symName: __ZNKSt8__detail14_Node_iteratorISt4pairIKNSt7__cxx1112basic_stringIcSt11char_traitsIcESaIcEEEiELb0ELb1EEptEv, symObjAddr: 0x52D8, symBinAddr: 0x100006494, symSize: 0x30 }
  - { offsetInCU: 0x1449B, offset: 0x1449B, size: 0x8, addend: 0x0, symName: __ZNSt10_HashtableINSt7__cxx1112basic_stringIcSt11char_traitsIcESaIcEEESt4pairIKS5_iESaIS8_ENSt8__detail10_Select1stESt8equal_toIS5_ESt4hashIS5_ENSA_18_Mod_range_hashingENSA_20_Default_ranged_hashENSA_20_Prime_rehash_policyENSA_17_Hashtable_traitsILb1ELb0ELb1EEEE21_M_insert_unique_nodeEmmPNSA_10_Hash_nodeIS8_Lb1EEEm, symObjAddr: 0x51C8, symBinAddr: 0x100006384, symSize: 0x110 }
  - { offsetInCU: 0x14665, offset: 0x14665, size: 0x8, addend: 0x0, symName: __ZNSt10_HashtableINSt7__cxx1112basic_stringIcSt11char_traitsIcESaIcEEESt4pairIKS5_iESaIS8_ENSt8__detail10_Select1stESt8equal_toIS5_ESt4hashIS5_ENSA_18_Mod_range_hashingENSA_20_Default_ranged_hashENSA_20_Prime_rehash_policyENSA_17_Hashtable_traitsILb1ELb0ELb1EEEE12_Scoped_nodeD1Ev, symObjAddr: 0x5184, symBinAddr: 0x100006340, symSize: 0x44 }
  - { offsetInCU: 0x14750, offset: 0x14750, size: 0x8, addend: 0x0, symName: __ZNSt10_HashtableINSt7__cxx1112basic_stringIcSt11char_traitsIcESaIcEEESt4pairIKS5_iESaIS8_ENSt8__detail10_Select1stESt8equal_toIS5_ESt4hashIS5_ENSA_18_Mod_range_hashingENSA_20_Default_ranged_hashENSA_20_Prime_rehash_policyENSA_17_Hashtable_traitsILb1ELb0ELb1EEEE12_Scoped_nodeC1IJRKSt21piecewise_construct_tSt5tupleIJOS5_EESR_IJEEEEEPNSA_16_Hashtable_allocISaINSA_10_Hash_nodeIS8_Lb1EEEEEEDpOT_, symObjAddr: 0x50FC, symBinAddr: 0x1000062B8, symSize: 0x88 }
  - { offsetInCU: 0x1462B, offset: 0x1462B, size: 0x8, addend: 0x0, symName: __ZSt16forward_as_tupleIJNSt7__cxx1112basic_stringIcSt11char_traitsIcESaIcEEEEESt5tupleIJDpOT_EES9_, symObjAddr: 0x50C4, symBinAddr: 0x100006280, symSize: 0x38 }
  - { offsetInCU: 0x14662, offset: 0x14662, size: 0x8, addend: 0x0, symName: __ZNKSt10_HashtableINSt7__cxx1112basic_stringIcSt11char_traitsIcESaIcEEESt4pairIKS5_iESaIS8_ENSt8__detail10_Select1stESt8equal_toIS5_ESt4hashIS5_ENSA_18_Mod_range_hashingENSA_20_Default_ranged_hashENSA_20_Prime_rehash_policyENSA_17_Hashtable_traitsILb1ELb0ELb1EEEE12_M_find_nodeEmRS7_m, symObjAddr: 0x5070, symBinAddr: 0x10000622C, symSize: 0x54 }
  - { offsetInCU: 0x146CE, offset: 0x146CE, size: 0x8, addend: 0x0, symName: __ZNKSt10_HashtableINSt7__cxx1112basic_stringIcSt11char_traitsIcESaIcEEESt4pairIKS5_iESaIS8_ENSt8__detail10_Select1stESt8equal_toIS5_ESt4hashIS5_ENSA_18_Mod_range_hashingENSA_20_Default_ranged_hashENSA_20_Prime_rehash_policyENSA_17_Hashtable_traitsILb1ELb0ELb1EEEE15_M_bucket_indexEm, symObjAddr: 0x5040, symBinAddr: 0x1000061FC, symSize: 0x30 }
  - { offsetInCU: 0x14707, offset: 0x14707, size: 0x8, addend: 0x0, symName: __ZNKSt8__detail15_Hash_code_baseINSt7__cxx1112basic_stringIcSt11char_traitsIcESaIcEEESt4pairIKS6_iENS_10_Select1stESt4hashIS6_ENS_18_Mod_range_hashingENS_20_Default_ranged_hashELb1EE12_M_hash_codeERS8_, symObjAddr: 0x5018, symBinAddr: 0x1000061D4, symSize: 0x28 }
  - { offsetInCU: 0x14740, offset: 0x14740, size: 0x8, addend: 0x0, symName: __ZNSt10_HashtableINSt7__cxx1112basic_stringIcSt11char_traitsIcESaIcEEESt4pairIKS5_iESaIS8_ENSt8__detail10_Select1stESt8equal_toIS5_ESt4hashIS5_ENSA_18_Mod_range_hashingENSA_20_Default_ranged_hashENSA_20_Prime_rehash_policyENSA_17_Hashtable_traitsILb1ELb0ELb1EEEE21_M_deallocate_bucketsEPPNSA_15_Hash_node_baseEm, symObjAddr: 0x4FCC, symBinAddr: 0x100006188, symSize: 0x4C }
  - { offsetInCU: 0x1478A, offset: 0x1478A, size: 0x8, addend: 0x0, symName: __ZNSt8__detail16_Hashtable_allocISaINS_10_Hash_nodeISt4pairIKNSt7__cxx1112basic_stringIcSt11char_traitsIcESaIcEEEiELb1EEEEE19_M_deallocate_nodesEPSB_, symObjAddr: 0x4F7C, symBinAddr: 0x100006138, symSize: 0x50 }
  - { offsetInCU: 0x147E7, offset: 0x147E7, size: 0x8, addend: 0x0, symName: __ZNKSt10_HashtableINSt7__cxx1112basic_stringIcSt11char_traitsIcESaIcEEESt4pairIKS5_iESaIS8_ENSt8__detail10_Select1stESt8equal_toIS5_ESt4hashIS5_ENSA_18_Mod_range_hashingENSA_20_Default_ranged_hashENSA_20_Prime_rehash_policyENSA_17_Hashtable_traitsILb1ELb0ELb1EEEE8_M_beginEv, symObjAddr: 0x4F64, symBinAddr: 0x100006120, symSize: 0x18 }
  - { offsetInCU: 0x14825, offset: 0x14825, size: 0x8, addend: 0x0, symName: __ZNSt12_Vector_baseI13ExerciseEntrySaIS0_EE19_M_get_Tp_allocatorEv, symObjAddr: 0x4F50, symBinAddr: 0x10000610C, symSize: 0x14 }
  - { offsetInCU: 0x14849, offset: 0x14849, size: 0x8, addend: 0x0, symName: __ZNSt6vectorI13ExerciseEntrySaIS0_EE11_S_relocateEPS0_S3_S3_RS1_, symObjAddr: 0x4F1C, symBinAddr: 0x1000060D8, symSize: 0x34 }
  - { offsetInCU: 0x148A5, offset: 0x148A5, size: 0x8, addend: 0x0, symName: __ZSt12__to_addressI13ExerciseEntryEPT_S2_, symObjAddr: 0x4F08, symBinAddr: 0x1000060C4, symSize: 0x14 }
  - { offsetInCU: 0x1490B, offset: 0x1490B, size: 0x8, addend: 0x0, symName: __ZNSt12_Vector_baseI13ExerciseEntrySaIS0_EE11_M_allocateEm, symObjAddr: 0x4E30, symBinAddr: 0x100005FEC, symSize: 0xD8 }
  - { offsetInCU: 0x149B7, offset: 0x149B7, size: 0x8, addend: 0x0, symName: __ZNK9__gnu_cxx17__normal_iteratorIP13ExerciseEntrySt6vectorIS1_SaIS1_EEE4baseEv, symObjAddr: 0x4E1C, symBinAddr: 0x100005FD8, symSize: 0x14 }
  - { offsetInCU: 0x149DB, offset: 0x149DB, size: 0x8, addend: 0x0, symName: __ZSt12construct_atI13ExerciseEntryJRKS0_EEDTgsnwcvPvLi0E_T_pispcl7declvalIT0_EEEEPS4_DpOS5_, symObjAddr: 0x4D9C, symBinAddr: 0x100005F58, symSize: 0x80 }
  - { offsetInCU: 0x14A2B, offset: 0x14A2B, size: 0x8, addend: 0x0, symName: __ZSt7forwardIRK13ExerciseEntryEOT_RNSt16remove_referenceIS3_E4typeE, symObjAddr: 0x4D88, symBinAddr: 0x100005F44, symSize: 0x14 }
  - { offsetInCU: 0x14A5B, offset: 0x14A5B, size: 0x8, addend: 0x0, symName: __ZNSt6vectorIS_I13ExerciseEntrySaIS0_EESaIS2_EE11_S_relocateEPS2_S5_S5_RS3_, symObjAddr: 0x4D54, symBinAddr: 0x100005F10, symSize: 0x34 }
  - { offsetInCU: 0x14ABB, offset: 0x14ABB, size: 0x8, addend: 0x0, symName: __ZNSt12_Vector_baseISt6vectorI13ExerciseEntrySaIS1_EESaIS3_EE11_M_allocateEm, symObjAddr: 0x4C7C, symBinAddr: 0x100005E38, symSize: 0xD8 }
  - { offsetInCU: 0x14B63, offset: 0x14B63, size: 0x8, addend: 0x0, symName: __ZSt27__uninitialized_default_n_aIPSt6vectorI13ExerciseEntrySaIS1_EEmS3_ET_S5_T0_RSaIT1_E, symObjAddr: 0x4C54, symBinAddr: 0x100005E10, symSize: 0x28 }
  - { offsetInCU: 0x14BC1, offset: 0x14BC1, size: 0x8, addend: 0x0, symName: __ZSt8_DestroyIPSt6vectorI13ExerciseEntrySaIS1_EEEvT_S5_, symObjAddr: 0x4C10, symBinAddr: 0x100005DCC, symSize: 0x44 }
  - { offsetInCU: 0x14C4B, offset: 0x14C4B, size: 0x8, addend: 0x0, symName: __ZNSt7__cxx1112basic_stringIcSt11char_traitsIcESaIcEE11_S_allocateERS3_m, symObjAddr: 0x4B74, symBinAddr: 0x100005D30, symSize: 0x9C }
  - { offsetInCU: 0x14D33, offset: 0x14D33, size: 0x8, addend: 0x0, symName: __ZNSt6vectorI8ExerciseSaIS0_EE11_S_relocateEPS0_S3_S3_RS1_, symObjAddr: 0x4B40, symBinAddr: 0x100005CFC, symSize: 0x34 }
  - { offsetInCU: 0x14D8F, offset: 0x14D8F, size: 0x8, addend: 0x0, symName: __ZSt12__to_addressI8ExerciseEPT_S2_, symObjAddr: 0x4B2C, symBinAddr: 0x100005CE8, symSize: 0x14 }
  - { offsetInCU: 0x14DF5, offset: 0x14DF5, size: 0x8, addend: 0x0, symName: __ZNSt12_Vector_baseI8ExerciseSaIS0_EE11_M_allocateEm, symObjAddr: 0x4A68, symBinAddr: 0x100005C24, symSize: 0xC4 }
  - { offsetInCU: 0x14E9D, offset: 0x14E9D, size: 0x8, addend: 0x0, symName: __ZSt12construct_atI8ExerciseJRKS0_EEDTgsnwcvPvLi0E_T_pispcl7declvalIT0_EEEEPS4_DpOS5_, symObjAddr: 0x49E8, symBinAddr: 0x100005BA4, symSize: 0x80 }
  - { offsetInCU: 0x14EED, offset: 0x14EED, size: 0x8, addend: 0x0, symName: __ZSt7forwardIRK8ExerciseEOT_RNSt16remove_referenceIS3_E4typeE, symObjAddr: 0x49D4, symBinAddr: 0x100005B90, symSize: 0x14 }
  - { offsetInCU: 0x14F26, offset: 0x14F26, size: 0x8, addend: 0x0, symName: __ZNSt7__cxx1112basic_stringIcSt11char_traitsIcESaIcEE9_M_appendEPKcm, symObjAddr: 0x490C, symBinAddr: 0x100005AC8, symSize: 0xC8 }
  - { offsetInCU: 0x14F81, offset: 0x14F81, size: 0x8, addend: 0x0, symName: __ZNKSt7__cxx1112basic_stringIcSt11char_traitsIcESaIcEE15_M_check_lengthEmmPKc, symObjAddr: 0x4898, symBinAddr: 0x100005A54, symSize: 0x74 }
  - { offsetInCU: 0x14FDC, offset: 0x14FDC, size: 0x8, addend: 0x0, symName: __ZNKSt7__cxx1112basic_stringIcSt11char_traitsIcESaIcEE8max_sizeEv, symObjAddr: 0x486C, symBinAddr: 0x100005A28, symSize: 0x2C }
  - { offsetInCU: 0x1503E, offset: 0x1503E, size: 0x8, addend: 0x0, symName: __ZNSt7__cxx1112basic_stringIcSt11char_traitsIcESaIcEE6appendEPKcm, symObjAddr: 0x4828, symBinAddr: 0x1000059E4, symSize: 0x44 }
  - { offsetInCU: 0x15088, offset: 0x15088, size: 0x8, addend: 0x0, symName: __ZNSt7__cxx1112basic_stringIcSt11char_traitsIcESaIcEE7replaceEmmPKcm, symObjAddr: 0x47BC, symBinAddr: 0x100005978, symSize: 0x6C }
  - { offsetInCU: 0x15106, offset: 0x15106, size: 0x8, addend: 0x0, symName: __ZNSt19__ptr_traits_ptr_toIPKcS0_Lb0EE10pointer_toERS0_, symObjAddr: 0x47A0, symBinAddr: 0x10000595C, symSize: 0x1C }
  - { offsetInCU: 0x1512D, offset: 0x1512D, size: 0x8, addend: 0x0, symName: __ZNSt7__cxx1112basic_stringIcSt11char_traitsIcESaIcEE7_S_copyEPcPKcm, symObjAddr: 0x4754, symBinAddr: 0x100005910, symSize: 0x4C }
  - { offsetInCU: 0x1517C, offset: 0x1517C, size: 0x8, addend: 0x0, symName: __ZNSt7__cxx1112basic_stringIcSt11char_traitsIcESaIcEE10_M_destroyEm, symObjAddr: 0x46BC, symBinAddr: 0x100005878, symSize: 0x98 }
  - { offsetInCU: 0x1523C, offset: 0x1523C, size: 0x8, addend: 0x0, symName: __ZSt7forwardIRcEOT_RNSt16remove_referenceIS1_E4typeE, symObjAddr: 0x46A8, symBinAddr: 0x100005864, symSize: 0x14 }
  - { offsetInCU: 0x15286, offset: 0x15286, size: 0x8, addend: 0x0, symName: __ZNSt8__detail19_Node_iterator_baseISt4pairIKNSt7__cxx1112basic_stringIcSt11char_traitsIcESaIcEEEiELb1EE7_M_incrEv, symObjAddr: 0x4678, symBinAddr: 0x100005834, symSize: 0x30 }
  - { offsetInCU: 0x152AE, offset: 0x152AE, size: 0x8, addend: 0x0, symName: __ZNSt10_HashtableINSt7__cxx1112basic_stringIcSt11char_traitsIcESaIcEEESt4pairIKS5_iESaIS8_ENSt8__detail10_Select1stESt8equal_toIS5_ESt4hashIS5_ENSA_18_Mod_range_hashingENSA_20_Default_ranged_hashENSA_20_Prime_rehash_policyENSA_17_Hashtable_traitsILb1ELb0ELb1EEEE3endEv, symObjAddr: 0x4654, symBinAddr: 0x100005810, symSize: 0x24 }
  - { offsetInCU: 0x152D6, offset: 0x152D6, size: 0x8, addend: 0x0, symName: __ZNSt10_HashtableINSt7__cxx1112basic_stringIcSt11char_traitsIcESaIcEEESt4pairIKS5_iESaIS8_ENSt8__detail10_Select1stESt8equal_toIS5_ESt4hashIS5_ENSA_18_Mod_range_hashingENSA_20_Default_ranged_hashENSA_20_Prime_rehash_policyENSA_17_Hashtable_traitsILb1ELb0ELb1EEEE5beginEv, symObjAddr: 0x4628, symBinAddr: 0x1000057E4, symSize: 0x2C }
  - { offsetInCU: 0x15339, offset: 0x15339, size: 0x8, addend: 0x0, symName: __ZNSt12_Vector_baseI8ExerciseSaIS0_EE19_M_get_Tp_allocatorEv, symObjAddr: 0x4614, symBinAddr: 0x1000057D0, symSize: 0x14 }
  - { offsetInCU: 0x15361, offset: 0x15361, size: 0x8, addend: 0x0, symName: __ZNSt12_Vector_baseI8ExerciseSaIS0_EE13_M_deallocateEPS0_m, symObjAddr: 0x4588, symBinAddr: 0x100005744, symSize: 0x8C }
  - { offsetInCU: 0x15431, offset: 0x15431, size: 0x8, addend: 0x0, symName: __ZNSt8__detail16_Hashtable_allocISaINS_10_Hash_nodeISt4pairIKNSt7__cxx1112basic_stringIcSt11char_traitsIcESaIcEEEiELb1EEEEE17_M_node_allocatorEv, symObjAddr: 0x456C, symBinAddr: 0x100005728, symSize: 0x1C }
  - { offsetInCU: 0x15459, offset: 0x15459, size: 0x8, addend: 0x0, symName: __ZNSt8__detail9_Map_baseINSt7__cxx1112basic_stringIcSt11char_traitsIcESaIcEEESt4pairIKS6_iESaIS9_ENS_10_Select1stESt8equal_toIS6_ESt4hashIS6_ENS_18_Mod_range_hashingENS_20_Default_ranged_hashENS_20_Prime_rehash_policyENS_17_Hashtable_traitsILb1ELb0ELb1EEELb1EEixEOS6_, symObjAddr: 0x443C, symBinAddr: 0x1000055F8, symSize: 0x130 }
  - { offsetInCU: 0x155DE, offset: 0x155DE, size: 0x8, addend: 0x0, symName: __ZN9__gnu_cxx17__normal_iteratorIPKSt6vectorI13ExerciseEntrySaIS2_EES1_IS4_SaIS4_EEEC1ERKS6_, symObjAddr: 0x4414, symBinAddr: 0x1000055D0, symSize: 0x28 }
  - { offsetInCU: 0x155B4, offset: 0x155B4, size: 0x8, addend: 0x0, symName: __ZNSt10_HashtableINSt7__cxx1112basic_stringIcSt11char_traitsIcESaIcEEESt4pairIKS5_iESaIS8_ENSt8__detail10_Select1stESt8equal_toIS5_ESt4hashIS5_ENSA_18_Mod_range_hashingENSA_20_Default_ranged_hashENSA_20_Prime_rehash_policyENSA_17_Hashtable_traitsILb1ELb0ELb1EEEE21_M_deallocate_bucketsEv, symObjAddr: 0x43E0, symBinAddr: 0x10000559C, symSize: 0x34 }
  - { offsetInCU: 0x155DC, offset: 0x155DC, size: 0x8, addend: 0x0, symName: __ZNSt10_HashtableINSt7__cxx1112basic_stringIcSt11char_traitsIcESaIcEEESt4pairIKS5_iESaIS8_ENSt8__detail10_Select1stESt8equal_toIS5_ESt4hashIS5_ENSA_18_Mod_range_hashingENSA_20_Default_ranged_hashENSA_20_Prime_rehash_policyENSA_17_Hashtable_traitsILb1ELb0ELb1EEEE5clearEv, symObjAddr: 0x4380, symBinAddr: 0x10000553C, symSize: 0x60 }
  - { offsetInCU: 0x1561A, offset: 0x1561A, size: 0x8, addend: 0x0, symName: __ZNSt6vectorI13ExerciseEntrySaIS0_EE17_M_realloc_appendIJRKS0_EEEvDpOT_, symObjAddr: 0x41B0, symBinAddr: 0x10000536C, symSize: 0x1D0 }
  - { offsetInCU: 0x157F6, offset: 0x157F6, size: 0x8, addend: 0x0, symName: __ZZNSt6vectorI13ExerciseEntrySaIS0_EE17_M_realloc_appendIJRKS0_EEEvDpOT_EN6_GuardC1EPS0_mRS1_, symObjAddr: 0x40D8, symBinAddr: 0x100005294, symSize: 0x44 }
  - { offsetInCU: 0x15834, offset: 0x15834, size: 0x8, addend: 0x0, symName: __ZZNSt6vectorI13ExerciseEntrySaIS0_EE17_M_realloc_appendIJRKS0_EEEvDpOT_EN6_GuardD1Ev, symObjAddr: 0x411C, symBinAddr: 0x1000052D8, symSize: 0x94 }
  - { offsetInCU: 0x158DE, offset: 0x158DE, size: 0x8, addend: 0x0, symName: __ZNSt6vectorI13ExerciseEntrySaIS0_EE5beginEv, symObjAddr: 0x40B4, symBinAddr: 0x100005270, symSize: 0x24 }
  - { offsetInCU: 0x15908, offset: 0x15908, size: 0x8, addend: 0x0, symName: __ZN9__gnu_cxxmiIP13ExerciseEntrySt6vectorIS1_SaIS1_EEEENS_17__normal_iteratorIT_T0_E15difference_typeERKS9_SC_, symObjAddr: 0x4060, symBinAddr: 0x10000521C, symSize: 0x54 }
  - { offsetInCU: 0x159CC, offset: 0x159CC, size: 0x8, addend: 0x0, symName: __ZN9__gnu_cxx17__normal_iteratorIP13ExerciseEntrySt6vectorIS1_SaIS1_EEEC1ERKS2_, symObjAddr: 0x4038, symBinAddr: 0x1000051F4, symSize: 0x28 }
  - { offsetInCU: 0x159AF, offset: 0x159AF, size: 0x8, addend: 0x0, symName: __ZNSt6vectorI13ExerciseEntrySaIS0_EE3endEv, symObjAddr: 0x4010, symBinAddr: 0x1000051CC, symSize: 0x28 }
  - { offsetInCU: 0x159D7, offset: 0x159D7, size: 0x8, addend: 0x0, symName: __ZNKSt6vectorI13ExerciseEntrySaIS0_EE12_M_check_lenEmPKc, symObjAddr: 0x3F40, symBinAddr: 0x1000050FC, symSize: 0xD0 }
  - { offsetInCU: 0x15A32, offset: 0x15A32, size: 0x8, addend: 0x0, symName: __ZNKSt6vectorI13ExerciseEntrySaIS0_EE4sizeEv, symObjAddr: 0x3F04, symBinAddr: 0x1000050C0, symSize: 0x3C }
  - { offsetInCU: 0x15A56, offset: 0x15A56, size: 0x8, addend: 0x0, symName: __ZNSt6vectorI13ExerciseEntrySaIS0_EE11_S_max_sizeERKS1_, symObjAddr: 0x3EC0, symBinAddr: 0x10000507C, symSize: 0x44 }
  - { offsetInCU: 0x15AA5, offset: 0x15AA5, size: 0x8, addend: 0x0, symName: __ZNKSt12_Vector_baseI13ExerciseEntrySaIS0_EE19_M_get_Tp_allocatorEv, symObjAddr: 0x3EAC, symBinAddr: 0x100005068, symSize: 0x14 }
  - { offsetInCU: 0x15ACD, offset: 0x15ACD, size: 0x8, addend: 0x0, symName: __ZNKSt6vectorI13ExerciseEntrySaIS0_EE8max_sizeEv, symObjAddr: 0x3E8C, symBinAddr: 0x100005048, symSize: 0x20 }
  - { offsetInCU: 0x15B39, offset: 0x15B39, size: 0x8, addend: 0x0, symName: __ZNSt6vectorIS_I13ExerciseEntrySaIS0_EESaIS2_EE15_M_erase_at_endEPS2_, symObjAddr: 0x3DF8, symBinAddr: 0x100004FB4, symSize: 0x94 }
  - { offsetInCU: 0x15BCC, offset: 0x15BCC, size: 0x8, addend: 0x0, symName: __ZNSt6vectorIS_I13ExerciseEntrySaIS0_EESaIS2_EE17_M_default_appendEm, symObjAddr: 0x3BA4, symBinAddr: 0x100004D60, symSize: 0x254 }
  - { offsetInCU: 0x15DC2, offset: 0x15DC2, size: 0x8, addend: 0x0, symName: __ZZNSt6vectorIS_I13ExerciseEntrySaIS0_EESaIS2_EE17_M_default_appendEmEN6_GuardC1EPS2_mRS3_, symObjAddr: 0x3ACC, symBinAddr: 0x100004C88, symSize: 0x44 }
  - { offsetInCU: 0x15E00, offset: 0x15E00, size: 0x8, addend: 0x0, symName: __ZZNSt6vectorIS_I13ExerciseEntrySaIS0_EESaIS2_EE17_M_default_appendEmEN6_GuardD1Ev, symObjAddr: 0x3B10, symBinAddr: 0x100004CCC, symSize: 0x94 }
  - { offsetInCU: 0x15E5D, offset: 0x15E5D, size: 0x8, addend: 0x0, symName: __ZNKSt6vectorIS_I13ExerciseEntrySaIS0_EESaIS2_EE12_M_check_lenEmPKc, symObjAddr: 0x39FC, symBinAddr: 0x100004BB8, symSize: 0xD0 }
  - { offsetInCU: 0x15EB4, offset: 0x15EB4, size: 0x8, addend: 0x0, symName: __ZNSt6vectorIS_I13ExerciseEntrySaIS0_EESaIS2_EE11_S_max_sizeERKS3_, symObjAddr: 0x39C0, symBinAddr: 0x100004B7C, symSize: 0x3C }
  - { offsetInCU: 0x15F03, offset: 0x15F03, size: 0x8, addend: 0x0, symName: __ZNKSt12_Vector_baseISt6vectorI13ExerciseEntrySaIS1_EESaIS3_EE19_M_get_Tp_allocatorEv, symObjAddr: 0x39AC, symBinAddr: 0x100004B68, symSize: 0x14 }
  - { offsetInCU: 0x15F2B, offset: 0x15F2B, size: 0x8, addend: 0x0, symName: __ZNKSt6vectorIS_I13ExerciseEntrySaIS0_EESaIS2_EE8max_sizeEv, symObjAddr: 0x398C, symBinAddr: 0x100004B48, symSize: 0x20 }
  - { offsetInCU: 0x15F8E, offset: 0x15F8E, size: 0x8, addend: 0x0, symName: __ZNSt12_Vector_baseISt6vectorI13ExerciseEntrySaIS1_EESaIS3_EE19_M_get_Tp_allocatorEv, symObjAddr: 0x3978, symBinAddr: 0x100004B34, symSize: 0x14 }
  - { offsetInCU: 0x15FB6, offset: 0x15FB6, size: 0x8, addend: 0x0, symName: __ZNSt12_Vector_baseISt6vectorI13ExerciseEntrySaIS1_EESaIS3_EE13_M_deallocateEPS3_m, symObjAddr: 0x38EC, symBinAddr: 0x100004AA8, symSize: 0x8C }
  - { offsetInCU: 0x16082, offset: 0x16082, size: 0x8, addend: 0x0, symName: __ZNSt7__cxx1112basic_stringIcSt11char_traitsIcESaIcEE13_S_copy_charsEPcS5_S5_, symObjAddr: 0x38B0, symBinAddr: 0x100004A6C, symSize: 0x3C }
  - { offsetInCU: 0x160D5, offset: 0x160D5, size: 0x8, addend: 0x0, symName: __ZNSt7__cxx1112basic_stringIcSt11char_traitsIcESaIcEE9_M_createERmm, symObjAddr: 0x37BC, symBinAddr: 0x100004978, symSize: 0xF4 }
  - { offsetInCU: 0x16146, offset: 0x16146, size: 0x8, addend: 0x0, symName: __ZNSt6vectorI8ExerciseSaIS0_EE17_M_realloc_appendIJRKS0_EEEvDpOT_, symObjAddr: 0x3620, symBinAddr: 0x1000047DC, symSize: 0x19C }
  - { offsetInCU: 0x1631C, offset: 0x1631C, size: 0x8, addend: 0x0, symName: __ZZNSt6vectorI8ExerciseSaIS0_EE17_M_realloc_appendIJRKS0_EEEvDpOT_EN6_GuardC1EPS0_mRS1_, symObjAddr: 0x3548, symBinAddr: 0x100004704, symSize: 0x44 }
  - { offsetInCU: 0x1635A, offset: 0x1635A, size: 0x8, addend: 0x0, symName: __ZZNSt6vectorI8ExerciseSaIS0_EE17_M_realloc_appendIJRKS0_EEEvDpOT_EN6_GuardD1Ev, symObjAddr: 0x358C, symBinAddr: 0x100004748, symSize: 0x94 }
  - { offsetInCU: 0x1640C, offset: 0x1640C, size: 0x8, addend: 0x0, symName: __ZN9__gnu_cxxmiIP8ExerciseSt6vectorIS1_SaIS1_EEEENS_17__normal_iteratorIT_T0_E15difference_typeERKS9_SC_, symObjAddr: 0x3508, symBinAddr: 0x1000046C4, symSize: 0x40 }
  - { offsetInCU: 0x164CA, offset: 0x164CA, size: 0x8, addend: 0x0, symName: __ZN9__gnu_cxx17__normal_iteratorIP8ExerciseSt6vectorIS1_SaIS1_EEEC1ERKS2_, symObjAddr: 0x34E0, symBinAddr: 0x10000469C, symSize: 0x28 }
  - { offsetInCU: 0x164B3, offset: 0x164B3, size: 0x8, addend: 0x0, symName: __ZNKSt6vectorI8ExerciseSaIS0_EE12_M_check_lenEmPKc, symObjAddr: 0x3410, symBinAddr: 0x1000045CC, symSize: 0xD0 }
  - { offsetInCU: 0x1650E, offset: 0x1650E, size: 0x8, addend: 0x0, symName: __ZNKSt6vectorI8ExerciseSaIS0_EE4sizeEv, symObjAddr: 0x33E8, symBinAddr: 0x1000045A4, symSize: 0x28 }
  - { offsetInCU: 0x16532, offset: 0x16532, size: 0x8, addend: 0x0, symName: __ZNSt6vectorI8ExerciseSaIS0_EE11_S_max_sizeERKS1_, symObjAddr: 0x33B4, symBinAddr: 0x100004570, symSize: 0x34 }
  - { offsetInCU: 0x16581, offset: 0x16581, size: 0x8, addend: 0x0, symName: __ZNKSt12_Vector_baseI8ExerciseSaIS0_EE19_M_get_Tp_allocatorEv, symObjAddr: 0x33A0, symBinAddr: 0x10000455C, symSize: 0x14 }
  - { offsetInCU: 0x165A9, offset: 0x165A9, size: 0x8, addend: 0x0, symName: __ZNKSt6vectorI8ExerciseSaIS0_EE8max_sizeEv, symObjAddr: 0x3380, symBinAddr: 0x10000453C, symSize: 0x20 }
  - { offsetInCU: 0x16615, offset: 0x16615, size: 0x8, addend: 0x0, symName: __ZNSt7__cxx1112basic_stringIcSt11char_traitsIcESaIcEE6appendEPKc, symObjAddr: 0x3334, symBinAddr: 0x1000044F0, symSize: 0x4C }
  - { offsetInCU: 0x1665F, offset: 0x1665F, size: 0x8, addend: 0x0, symName: __ZNSt7__cxx1112basic_stringIcSt11char_traitsIcESaIcEE6appendERKS4_, symObjAddr: 0x32F0, symBinAddr: 0x1000044AC, symSize: 0x44 }
  - { offsetInCU: 0x1669A, offset: 0x1669A, size: 0x8, addend: 0x0, symName: __ZSt12__str_concatINSt7__cxx1112basic_stringIcSt11char_traitsIcESaIcEEEET_PKNS6_10value_typeENS6_9size_typeES9_SA_RKNS6_14allocator_typeE, symObjAddr: 0x3218, symBinAddr: 0x1000043D4, symSize: 0xD8 }
  - { offsetInCU: 0x1684D, offset: 0x1684D, size: 0x8, addend: 0x0, symName: __ZNSt7__cxx1112basic_stringIcSt11char_traitsIcESaIcEEC1ERKS3_, symObjAddr: 0x3180, symBinAddr: 0x10000433C, symSize: 0x98 }
  - { offsetInCU: 0x16886, offset: 0x16886, size: 0x8, addend: 0x0, symName: __ZNKSt7__cxx1112basic_stringIcSt11char_traitsIcESaIcEE13get_allocatorEv, symObjAddr: 0x3130, symBinAddr: 0x1000042EC, symSize: 0x50 }
  - { offsetInCU: 0x16907, offset: 0x16907, size: 0x8, addend: 0x0, symName: __ZNSt7__cxx1112basic_stringIcSt11char_traitsIcESaIcEE6insertEmRKS4_, symObjAddr: 0x30E0, symBinAddr: 0x10000429C, symSize: 0x50 }
  - { offsetInCU: 0x16953, offset: 0x16953, size: 0x8, addend: 0x0, symName: __ZSt4moveIRNSt7__cxx1112basic_stringIcSt11char_traitsIcESaIcEEEEONSt16remove_referenceIT_E4typeEOS8_, symObjAddr: 0x30CC, symBinAddr: 0x100004288, symSize: 0x14 }
  - { offsetInCU: 0x16987, offset: 0x16987, size: 0x8, addend: 0x0, symName: __ZNKSt7__cxx1112basic_stringIcSt11char_traitsIcESaIcEE4dataEv, symObjAddr: 0x30B0, symBinAddr: 0x10000426C, symSize: 0x1C }
  - { offsetInCU: 0x169C5, offset: 0x169C5, size: 0x8, addend: 0x0, symName: __ZNSt7__cxx1112basic_stringIcSt11char_traitsIcESaIcEE11_M_capacityEm, symObjAddr: 0x308C, symBinAddr: 0x100004248, symSize: 0x24 }
  - { offsetInCU: 0x169FC, offset: 0x169FC, size: 0x8, addend: 0x0, symName: __ZNSt7__cxx1112basic_stringIcSt11char_traitsIcESaIcEE7_M_dataEPc, symObjAddr: 0x3068, symBinAddr: 0x100004224, symSize: 0x24 }
  - { offsetInCU: 0x16A33, offset: 0x16A33, size: 0x8, addend: 0x0, symName: __ZNKSt7__cxx1112basic_stringIcSt11char_traitsIcESaIcEE13_M_local_dataEv, symObjAddr: 0x3048, symBinAddr: 0x100004204, symSize: 0x20 }
  - { offsetInCU: 0x16A5D, offset: 0x16A5D, size: 0x8, addend: 0x0, symName: __ZSt4moveIRZNSt7__cxx119to_stringEiEUlPcmE_EONSt16remove_referenceIT_E4typeEOS5_, symObjAddr: 0x3034, symBinAddr: 0x1000041F0, symSize: 0x14 }
  - { offsetInCU: 0x16A96, offset: 0x16A96, size: 0x8, addend: 0x0, symName: __ZNSt7__cxx1112basic_stringIcSt11char_traitsIcESaIcEE7reserveEm, symObjAddr: 0x2F8C, symBinAddr: 0x100004148, symSize: 0xA8 }
  - { offsetInCU: 0x16AF1, offset: 0x16AF1, size: 0x8, addend: 0x0, symName: __ZNKSt7__cxx1112basic_stringIcSt11char_traitsIcESaIcEE8capacityEv, symObjAddr: 0x2F54, symBinAddr: 0x100004110, symSize: 0x38 }
  - { offsetInCU: 0x16B19, offset: 0x16B19, size: 0x8, addend: 0x0, symName: __ZNSt7__cxx1112basic_stringIcSt11char_traitsIcESaIcEE10_M_disposeEv, symObjAddr: 0x2F0C, symBinAddr: 0x1000040C8, symSize: 0x48 }
  - { offsetInCU: 0x16B41, offset: 0x16B41, size: 0x8, addend: 0x0, symName: __ZNSt7__cxx1112basic_stringIcSt11char_traitsIcESaIcEE9_M_lengthEm, symObjAddr: 0x2EE8, symBinAddr: 0x1000040A4, symSize: 0x24 }
  - { offsetInCU: 0x16B74, offset: 0x16B74, size: 0x8, addend: 0x0, symName: __ZSt12construct_atIcJRcEEDTgsnwcvPvLi0E_T_pispcl7declvalIT0_EEEEPS2_DpOS3_, symObjAddr: 0x2EA0, symBinAddr: 0x10000405C, symSize: 0x48 }
  - { offsetInCU: 0x16BBE, offset: 0x16BBE, size: 0x8, addend: 0x0, symName: __ZN9__gnu_cxx11char_traitsIcE2eqERKcS3_, symObjAddr: 0x2E70, symBinAddr: 0x10000402C, symSize: 0x30 }
  - { offsetInCU: 0x16BFA, offset: 0x16BFA, size: 0x8, addend: 0x0, symName: __ZSt7forwardIRKcEOT_RNSt16remove_referenceIS2_E4typeE, symObjAddr: 0x2E5C, symBinAddr: 0x100004018, symSize: 0x14 }
  - { offsetInCU: 0x16C2E, offset: 0x16C2E, size: 0x8, addend: 0x0, symName: __ZNKSt8__detail14_Node_iteratorISt4pairIKNSt7__cxx1112basic_stringIcSt11char_traitsIcESaIcEEEiELb0ELb1EEdeEv, symObjAddr: 0x2E20, symBinAddr: 0x100003FDC, symSize: 0x3C }
  - { offsetInCU: 0x16C9E, offset: 0x16C9E, size: 0x8, addend: 0x0, symName: __ZNSt8__detail14_Node_iteratorISt4pairIKNSt7__cxx1112basic_stringIcSt11char_traitsIcESaIcEEEiELb0ELb1EEppEv, symObjAddr: 0x2E00, symBinAddr: 0x100003FBC, symSize: 0x20 }
  - { offsetInCU: 0x16CC8, offset: 0x16CC8, size: 0x8, addend: 0x0, symName: __ZNSt8__detaileqERKNS_19_Node_iterator_baseISt4pairIKNSt7__cxx1112basic_stringIcSt11char_traitsIcESaIcEEEiELb1EEESC_, symObjAddr: 0x2DD0, symBinAddr: 0x100003F8C, symSize: 0x30 }
  - { offsetInCU: 0x16D06, offset: 0x16D06, size: 0x8, addend: 0x0, symName: __ZNSt13unordered_mapINSt7__cxx1112basic_stringIcSt11char_traitsIcESaIcEEEiSt4hashIS5_ESt8equal_toIS5_ESaISt4pairIKS5_iEEE3endEv, symObjAddr: 0x2DB4, symBinAddr: 0x100003F70, symSize: 0x1C }
  - { offsetInCU: 0x16D2E, offset: 0x16D2E, size: 0x8, addend: 0x0, symName: __ZNSt13unordered_mapINSt7__cxx1112basic_stringIcSt11char_traitsIcESaIcEEEiSt4hashIS5_ESt8equal_toIS5_ESaISt4pairIKS5_iEEE5beginEv, symObjAddr: 0x2D98, symBinAddr: 0x100003F54, symSize: 0x1C }
  - { offsetInCU: 0x16D99, offset: 0x16D99, size: 0x8, addend: 0x0, symName: __ZNSt6vectorI8ExerciseSaIS0_EED1Ev, symObjAddr: 0x2D3C, symBinAddr: 0x100003EF8, symSize: 0x5C }
  - { offsetInCU: 0x16E20, offset: 0x16E20, size: 0x8, addend: 0x0, symName: __ZNSt12_Vector_baseI8ExerciseSaIS0_EED2Ev, symObjAddr: 0x2CEC, symBinAddr: 0x100003EA8, symSize: 0x50 }
  - { offsetInCU: 0x16E40, offset: 0x16E40, size: 0x8, addend: 0x0, symName: __ZNSt13unordered_mapINSt7__cxx1112basic_stringIcSt11char_traitsIcESaIcEEEiSt4hashIS5_ESt8equal_toIS5_ESaISt4pairIKS5_iEEEixEOS5_, symObjAddr: 0x2CB4, symBinAddr: 0x100003E70, symSize: 0x38 }
  - { offsetInCU: 0x16E79, offset: 0x16E79, size: 0x8, addend: 0x0, symName: __ZN9__gnu_cxx17__normal_iteratorIPKSt6vectorI13ExerciseEntrySaIS2_EES1_IS4_SaIS4_EEEppEv, symObjAddr: 0x2C8C, symBinAddr: 0x100003E48, symSize: 0x28 }
  - { offsetInCU: 0x16EA1, offset: 0x16EA1, size: 0x8, addend: 0x0, symName: __ZNKSt6vectorIS_I13ExerciseEntrySaIS0_EESaIS2_EE3endEv, symObjAddr: 0x2C64, symBinAddr: 0x100003E20, symSize: 0x28 }
  - { offsetInCU: 0x16EC9, offset: 0x16EC9, size: 0x8, addend: 0x0, symName: __ZNKSt6vectorIS_I13ExerciseEntrySaIS0_EESaIS2_EE5beginEv, symObjAddr: 0x2C40, symBinAddr: 0x100003DFC, symSize: 0x24 }
  - { offsetInCU: 0x1701C, offset: 0x1701C, size: 0x8, addend: 0x0, symName: __ZNSt10_HashtableINSt7__cxx1112basic_stringIcSt11char_traitsIcESaIcEEESt4pairIKS5_iESaIS8_ENSt8__detail10_Select1stESt8equal_toIS5_ESt4hashIS5_ENSA_18_Mod_range_hashingENSA_20_Default_ranged_hashENSA_20_Prime_rehash_policyENSA_17_Hashtable_traitsILb1ELb0ELb1EEEED1Ev, symObjAddr: 0x2C10, symBinAddr: 0x100003DCC, symSize: 0x30 }
  - { offsetInCU: 0x16FFE, offset: 0x16FFE, size: 0x8, addend: 0x0, symName: __ZNSt8__detail21_Hashtable_ebo_helperILi0ESaINS_10_Hash_nodeISt4pairIKNSt7__cxx1112basic_stringIcSt11char_traitsIcESaIcEEEiELb1EEEELb1EEC2Ev, symObjAddr: 0x2BE4, symBinAddr: 0x100003DA0, symSize: 0x2C }
  - { offsetInCU: 0x1706D, offset: 0x1706D, size: 0x8, addend: 0x0, symName: __ZNSt8__detail21_Hashtable_ebo_helperILi0ESt8equal_toINSt7__cxx1112basic_stringIcSt11char_traitsIcESaIcEEEELb1EEC2Ev, symObjAddr: 0x2BD0, symBinAddr: 0x100003D8C, symSize: 0x14 }
  - { offsetInCU: 0x170A9, offset: 0x170A9, size: 0x8, addend: 0x0, symName: __ZNSt8__detail21_Hashtable_ebo_helperILi1ESt4hashINSt7__cxx1112basic_stringIcSt11char_traitsIcESaIcEEEELb1EEC2Ev, symObjAddr: 0x2BBC, symBinAddr: 0x100003D78, symSize: 0x14 }
  - { offsetInCU: 0x17062, offset: 0x17062, size: 0x8, addend: 0x0, symName: __ZN9__gnu_cxx17__normal_iteratorIPK13ExerciseEntrySt6vectorIS1_SaIS1_EEEppEv, symObjAddr: 0x2B94, symBinAddr: 0x100003D50, symSize: 0x28 }
  - { offsetInCU: 0x1708A, offset: 0x1708A, size: 0x8, addend: 0x0, symName: __ZNKSt6vectorIS_I13ExerciseEntrySaIS0_EESaIS2_EEixEm, symObjAddr: 0x2B60, symBinAddr: 0x100003D1C, symSize: 0x34 }
  - { offsetInCU: 0x170C3, offset: 0x170C3, size: 0x8, addend: 0x0, symName: __ZNSt6vectorI13ExerciseEntrySaIS0_EE9push_backERKS0_, symObjAddr: 0x2AD4, symBinAddr: 0x100003C90, symSize: 0x8C }
  - { offsetInCU: 0x17132, offset: 0x17132, size: 0x8, addend: 0x0, symName: __ZNSt6vectorIS_I13ExerciseEntrySaIS0_EESaIS2_EEixEm, symObjAddr: 0x2AA0, symBinAddr: 0x100003C5C, symSize: 0x34 }
  - { offsetInCU: 0x1716B, offset: 0x1716B, size: 0x8, addend: 0x0, symName: __ZNKSt6vectorIS_I13ExerciseEntrySaIS0_EESaIS2_EE4sizeEv, symObjAddr: 0x2A6C, symBinAddr: 0x100003C28, symSize: 0x34 }
  - { offsetInCU: 0x17193, offset: 0x17193, size: 0x8, addend: 0x0, symName: __ZNSt6vectorIS_I13ExerciseEntrySaIS0_EESaIS2_EE6resizeEm, symObjAddr: 0x29B0, symBinAddr: 0x100003B6C, symSize: 0xBC }
  - { offsetInCU: 0x17220, offset: 0x17220, size: 0x8, addend: 0x0, symName: __ZNSt6vectorIS_I13ExerciseEntrySaIS0_EESaIS2_EED1Ev, symObjAddr: 0x2954, symBinAddr: 0x100003B10, symSize: 0x5C }
  - { offsetInCU: 0x172AE, offset: 0x172AE, size: 0x8, addend: 0x0, symName: __ZNSt12_Vector_baseISt6vectorI13ExerciseEntrySaIS1_EESaIS3_EED2Ev, symObjAddr: 0x28F8, symBinAddr: 0x100003AB4, symSize: 0x5C }
  - { offsetInCU: 0x172B2, offset: 0x172B2, size: 0x8, addend: 0x0, symName: __ZStplIcSt11char_traitsIcESaIcEENSt7__cxx1112basic_stringIT_T0_T1_EEOS8_S9_, symObjAddr: 0x2810, symBinAddr: 0x1000039CC, symSize: 0xE8 }
  - { offsetInCU: 0x17340, offset: 0x17340, size: 0x8, addend: 0x0, symName: __ZNSt6vectorI8ExerciseSaIS0_EEixEm, symObjAddr: 0x27E8, symBinAddr: 0x1000039A4, symSize: 0x28 }
  - { offsetInCU: 0x17379, offset: 0x17379, size: 0x8, addend: 0x0, symName: __ZNKSt7__cxx1112basic_stringIcSt11char_traitsIcESaIcEE4sizeEv, symObjAddr: 0x27D0, symBinAddr: 0x10000398C, symSize: 0x18 }
  - { offsetInCU: 0x173A1, offset: 0x173A1, size: 0x8, addend: 0x0, symName: __ZNSt7__cxx1112basic_stringIcSt11char_traitsIcESaIcEE12_M_constructIPcEEvT_S7_St20forward_iterator_tag, symObjAddr: 0x26B0, symBinAddr: 0x10000386C, symSize: 0x120 }
  - { offsetInCU: 0x17519, offset: 0x17519, size: 0x8, addend: 0x0, symName: __ZZNSt7__cxx1112basic_stringIcSt11char_traitsIcESaIcEE12_M_constructIPcEEvT_S7_St20forward_iterator_tagEN6_GuardC1EPS4_, symObjAddr: 0x2658, symBinAddr: 0x100003814, symSize: 0x24 }
  - { offsetInCU: 0x1754A, offset: 0x1754A, size: 0x8, addend: 0x0, symName: __ZZNSt7__cxx1112basic_stringIcSt11char_traitsIcESaIcEE12_M_constructIPcEEvT_S7_St20forward_iterator_tagEN6_GuardD1Ev, symObjAddr: 0x267C, symBinAddr: 0x100003838, symSize: 0x34 }
  - { offsetInCU: 0x175D5, offset: 0x175D5, size: 0x8, addend: 0x0, symName: __ZN9__gnu_cxx17__normal_iteratorIP8ExerciseSt6vectorIS1_SaIS1_EEEppEv, symObjAddr: 0x2630, symBinAddr: 0x1000037EC, symSize: 0x28 }
  - { offsetInCU: 0x175FD, offset: 0x175FD, size: 0x8, addend: 0x0, symName: __ZNSt6vectorI8ExerciseSaIS0_EE3endEv, symObjAddr: 0x2608, symBinAddr: 0x1000037C4, symSize: 0x28 }
  - { offsetInCU: 0x17625, offset: 0x17625, size: 0x8, addend: 0x0, symName: __ZNSt6vectorI8ExerciseSaIS0_EE5beginEv, symObjAddr: 0x25E4, symBinAddr: 0x1000037A0, symSize: 0x24 }
  - { offsetInCU: 0x1764D, offset: 0x1764D, size: 0x8, addend: 0x0, symName: __ZNSt6vectorI8ExerciseSaIS0_EE9push_backERKS0_, symObjAddr: 0x2558, symBinAddr: 0x100003714, symSize: 0x8C }
  - { offsetInCU: 0x176B8, offset: 0x176B8, size: 0x8, addend: 0x0, symName: __ZStplIcSt11char_traitsIcESaIcEENSt7__cxx1112basic_stringIT_T0_T1_EEOS8_PKS5_, symObjAddr: 0x2514, symBinAddr: 0x1000036D0, symSize: 0x44 }
  - { offsetInCU: 0x1770D, offset: 0x1770D, size: 0x8, addend: 0x0, symName: __ZStplIcSt11char_traitsIcESaIcEENSt7__cxx1112basic_stringIT_T0_T1_EEOS8_RKS8_, symObjAddr: 0x24D0, symBinAddr: 0x10000368C, symSize: 0x44 }
  - { offsetInCU: 0x17762, offset: 0x17762, size: 0x8, addend: 0x0, symName: __ZStplIcSt11char_traitsIcESaIcEENSt7__cxx1112basic_stringIT_T0_T1_EERKS8_PKS5_, symObjAddr: 0x2444, symBinAddr: 0x100003600, symSize: 0x8C }
  - { offsetInCU: 0x177D8, offset: 0x177D8, size: 0x8, addend: 0x0, symName: __ZSt3maxImERKT_S2_S2_, symObjAddr: 0x240C, symBinAddr: 0x1000035C8, symSize: 0x38 }
  - { offsetInCU: 0x1789D, offset: 0x1789D, size: 0x8, addend: 0x0, symName: __ZNSt7__cxx1112basic_stringIcSt11char_traitsIcESaIcEE12_Alloc_hiderC1EPcRKS3_, symObjAddr: 0x23BC, symBinAddr: 0x100003578, symSize: 0x50 }
  - { offsetInCU: 0x17944, offset: 0x17944, size: 0x8, addend: 0x0, symName: __ZNSt7__cxx1112basic_stringIcSt11char_traitsIcESaIcEEC1EOS4_, symObjAddr: 0x2228, symBinAddr: 0x1000033E4, symSize: 0x194 }
  - { offsetInCU: 0x179E6, offset: 0x179E6, size: 0x8, addend: 0x0, symName: __ZNKSt7__cxx1112basic_stringIcSt11char_traitsIcESaIcEE6lengthEv, symObjAddr: 0x2210, symBinAddr: 0x1000033CC, symSize: 0x18 }
  - { offsetInCU: 0x17A0E, offset: 0x17A0E, size: 0x8, addend: 0x0, symName: __ZNKSt7__cxx1112basic_stringIcSt11char_traitsIcESaIcEE11_M_is_localEv, symObjAddr: 0x21A8, symBinAddr: 0x100003364, symSize: 0x68 }
  - { offsetInCU: 0x17A36, offset: 0x17A36, size: 0x8, addend: 0x0, symName: __ZNSt7__cxx1112basic_stringIcSt11char_traitsIcESaIcEE16_M_get_allocatorEv, symObjAddr: 0x2194, symBinAddr: 0x100003350, symSize: 0x14 }
  - { offsetInCU: 0x17A5E, offset: 0x17A5E, size: 0x8, addend: 0x0, symName: __ZNSt7__cxx1112basic_stringIcSt11char_traitsIcESaIcEE22__resize_and_overwriteIZNS_9to_stringEiEUlPcmE_EEvmT_, symObjAddr: 0x2084, symBinAddr: 0x100003240, symSize: 0x110 }
  - { offsetInCU: 0x17BD2, offset: 0x17BD2, size: 0x8, addend: 0x0, symName: __ZZNSt7__cxx1112basic_stringIcSt11char_traitsIcESaIcEE22__resize_and_overwriteIZNS_9to_stringEiEUlPcmE_EEvmT_EN11_TerminatorD1Ev, symObjAddr: 0x2050, symBinAddr: 0x10000320C, symSize: 0x34 }
  - { offsetInCU: 0x17BB4, offset: 0x17BB4, size: 0x8, addend: 0x0, symName: __ZNSt8__detail18__to_chars_10_implIjEEvPcjT_, symObjAddr: 0x1E9C, symBinAddr: 0x100003058, symSize: 0x1B4 }
  - { offsetInCU: 0x17CD6, offset: 0x17CD6, size: 0x8, addend: 0x0, symName: __ZNSt7__cxx1112basic_stringIcSt11char_traitsIcESaIcEED1Ev, symObjAddr: 0x1E74, symBinAddr: 0x100003030, symSize: 0x28 }
  - { offsetInCU: 0x17CC6, offset: 0x17CC6, size: 0x8, addend: 0x0, symName: __ZNSt7__cxx1112basic_stringIcSt11char_traitsIcESaIcEE13_M_set_lengthEm, symObjAddr: 0x1E2C, symBinAddr: 0x100002FE8, symSize: 0x48 }
  - { offsetInCU: 0x17CFF, offset: 0x17CFF, size: 0x8, addend: 0x0, symName: __ZNKSt7__cxx1112basic_stringIcSt11char_traitsIcESaIcEE5c_strEv, symObjAddr: 0x1E10, symBinAddr: 0x100002FCC, symSize: 0x1C }
  - { offsetInCU: 0x17D27, offset: 0x17D27, size: 0x8, addend: 0x0, symName: __ZNKSt7__cxx1112basic_stringIcSt11char_traitsIcESaIcEE7_M_dataEv, symObjAddr: 0x1DF8, symBinAddr: 0x100002FB4, symSize: 0x18 }
  - { offsetInCU: 0x17D4B, offset: 0x17D4B, size: 0x8, addend: 0x0, symName: __ZN9__gnu_cxx11char_traitsIcE6assignEPcmc, symObjAddr: 0x1D5C, symBinAddr: 0x100002F18, symSize: 0x9C }
  - { offsetInCU: 0x17DF8, offset: 0x17DF8, size: 0x8, addend: 0x0, symName: __ZN9__gnu_cxx11char_traitsIcE4copyEPcPKcm, symObjAddr: 0x1CA8, symBinAddr: 0x100002E64, symSize: 0xB4 }
  - { offsetInCU: 0x17E7B, offset: 0x17E7B, size: 0x8, addend: 0x0, symName: __ZN9__gnu_cxx11char_traitsIcE4moveEPcPKcm, symObjAddr: 0x1C3C, symBinAddr: 0x100002DF8, symSize: 0x6C }
  - { offsetInCU: 0x17ED9, offset: 0x17ED9, size: 0x8, addend: 0x0, symName: __ZN9__gnu_cxx11char_traitsIcE6lengthEPKc, symObjAddr: 0x1BE4, symBinAddr: 0x100002DA0, symSize: 0x58 }
  - { offsetInCU: 0x17F10, offset: 0x17F10, size: 0x8, addend: 0x0, symName: __ZSt12construct_atIcJRKcEEDTgsnwcvPvLi0E_T_pispcl7declvalIT0_EEEEPS3_DpOS4_, symObjAddr: 0x1B9C, symBinAddr: 0x100002D58, symSize: 0x48 }
  - { offsetInCU: 0x17F63, offset: 0x17F63, size: 0x8, addend: 0x0, symName: _main, symObjAddr: 0x1674, symBinAddr: 0x100002830, symSize: 0x528 }
  - { offsetInCU: 0x18115, offset: 0x18115, size: 0x8, addend: 0x0, symName: __ZN7RoutineD1Ev, symObjAddr: 0x1654, symBinAddr: 0x100002810, symSize: 0x20 }
  - { offsetInCU: 0x18164, offset: 0x18164, size: 0x8, addend: 0x0, symName: __ZN9ExercisesD1Ev, symObjAddr: 0x1634, symBinAddr: 0x1000027F0, symSize: 0x20 }
  - { offsetInCU: 0x181D7, offset: 0x181D7, size: 0x8, addend: 0x0, symName: __ZNSt12_Vector_baseI8ExerciseSaIS0_EE12_Vector_implD1Ev, symObjAddr: 0x1614, symBinAddr: 0x1000027D0, symSize: 0x20 }
  - { offsetInCU: 0x181EC, offset: 0x181EC, size: 0x8, addend: 0x0, symName: __ZNK7Routine27calculateSetsPerMuscleGroupB5cxx11Ev, symObjAddr: 0x14B0, symBinAddr: 0x10000266C, symSize: 0x164 }
  - { offsetInCU: 0x182DF, offset: 0x182DF, size: 0x8, addend: 0x0, symName: __ZN13ExerciseEntryD1Ev, symObjAddr: 0x1490, symBinAddr: 0x10000264C, symSize: 0x20 }
  - { offsetInCU: 0x1832A, offset: 0x1832A, size: 0x8, addend: 0x0, symName: __ZN13ExerciseEntryC1ERKS_, symObjAddr: 0x1448, symBinAddr: 0x100002604, symSize: 0x48 }
  - { offsetInCU: 0x18343, offset: 0x18343, size: 0x8, addend: 0x0, symName: __ZNK9__gnu_cxx17__normal_iteratorIPKSt6vectorI13ExerciseEntrySaIS2_EES1_IS4_SaIS4_EEEdeEv, symObjAddr: 0x1430, symBinAddr: 0x1000025EC, symSize: 0x18 }
  - { offsetInCU: 0x1836D, offset: 0x1836D, size: 0x8, addend: 0x0, symName: __ZN9__gnu_cxxeqIPKSt6vectorI13ExerciseEntrySaIS2_EES1_IS4_SaIS4_EEEEbRKNS_17__normal_iteratorIT_T0_EESE_QrqXeqcldtfL0p_4baseEcldtfL0p0_4baseERSt14convertible_toIbEE, symObjAddr: 0x13EC, symBinAddr: 0x1000025A8, symSize: 0x44 }
  - { offsetInCU: 0x183BD, offset: 0x183BD, size: 0x8, addend: 0x0, symName: __ZNK9__gnu_cxx17__normal_iteratorIPKSt6vectorI13ExerciseEntrySaIS2_EES1_IS4_SaIS4_EEE4baseEv, symObjAddr: 0x13D8, symBinAddr: 0x100002594, symSize: 0x14 }
  - { offsetInCU: 0x18486, offset: 0x18486, size: 0x8, addend: 0x0, symName: __ZNSt13unordered_mapINSt7__cxx1112basic_stringIcSt11char_traitsIcESaIcEEEiSt4hashIS5_ESt8equal_toIS5_ESaISt4pairIKS5_iEEED1Ev, symObjAddr: 0x13B8, symBinAddr: 0x100002574, symSize: 0x20 }
  - { offsetInCU: 0x184C6, offset: 0x184C6, size: 0x8, addend: 0x0, symName: __ZNSt13unordered_mapINSt7__cxx1112basic_stringIcSt11char_traitsIcESaIcEEEiSt4hashIS5_ESt8equal_toIS5_ESaISt4pairIKS5_iEEEC1Ev, symObjAddr: 0x1398, symBinAddr: 0x100002554, symSize: 0x20 }
  - { offsetInCU: 0x18593, offset: 0x18593, size: 0x8, addend: 0x0, symName: __ZNSt10_HashtableINSt7__cxx1112basic_stringIcSt11char_traitsIcESaIcEEESt4pairIKS5_iESaIS8_ENSt8__detail10_Select1stESt8equal_toIS5_ESt4hashIS5_ENSA_18_Mod_range_hashingENSA_20_Default_ranged_hashENSA_20_Prime_rehash_policyENSA_17_Hashtable_traitsILb1ELb0ELb1EEEEC1Ev, symObjAddr: 0x1328, symBinAddr: 0x1000024E4, symSize: 0x70 }
  - { offsetInCU: 0x18556, offset: 0x18556, size: 0x8, addend: 0x0, symName: __ZNSt8__detail16_Hashtable_allocISaINS_10_Hash_nodeISt4pairIKNSt7__cxx1112basic_stringIcSt11char_traitsIcESaIcEEEiELb1EEEEED2Ev, symObjAddr: 0x1308, symBinAddr: 0x1000024C4, symSize: 0x20 }
  - { offsetInCU: 0x18596, offset: 0x18596, size: 0x8, addend: 0x0, symName: __ZNSt8__detail16_Hashtable_allocISaINS_10_Hash_nodeISt4pairIKNSt7__cxx1112basic_stringIcSt11char_traitsIcESaIcEEEiELb1EEEEEC2Ev, symObjAddr: 0x12E8, symBinAddr: 0x1000024A4, symSize: 0x20 }
  - { offsetInCU: 0x185F1, offset: 0x185F1, size: 0x8, addend: 0x0, symName: __ZNSt8__detail21_Hashtable_ebo_helperILi0ESaINS_10_Hash_nodeISt4pairIKNSt7__cxx1112basic_stringIcSt11char_traitsIcESaIcEEEiELb1EEEELb1EED2Ev, symObjAddr: 0x12C8, symBinAddr: 0x100002484, symSize: 0x20 }
  - { offsetInCU: 0x186B3, offset: 0x186B3, size: 0x8, addend: 0x0, symName: __ZNSt8__detail15_Hashtable_baseINSt7__cxx1112basic_stringIcSt11char_traitsIcESaIcEEESt4pairIKS6_iENS_10_Select1stESt8equal_toIS6_ESt4hashIS6_ENS_18_Mod_range_hashingENS_20_Default_ranged_hashENS_17_Hashtable_traitsILb1ELb0ELb1EEEEC2Ev, symObjAddr: 0x12A0, symBinAddr: 0x10000245C, symSize: 0x28 }
  - { offsetInCU: 0x186C2, offset: 0x186C2, size: 0x8, addend: 0x0, symName: __ZNSt8__detail15_Hash_code_baseINSt7__cxx1112basic_stringIcSt11char_traitsIcESaIcEEESt4pairIKS6_iENS_10_Select1stESt4hashIS6_ENS_18_Mod_range_hashingENS_20_Default_ranged_hashELb1EEC2Ev, symObjAddr: 0x1280, symBinAddr: 0x10000243C, symSize: 0x20 }
  - { offsetInCU: 0x18632, offset: 0x18632, size: 0x8, addend: 0x0, symName: __ZNK7Routine14displayRoutineEv, symObjAddr: 0x111C, symBinAddr: 0x1000022D8, symSize: 0x164 }
  - { offsetInCU: 0x186B1, offset: 0x186B1, size: 0x8, addend: 0x0, symName: __ZNK9__gnu_cxx17__normal_iteratorIPK13ExerciseEntrySt6vectorIS1_SaIS1_EEEdeEv, symObjAddr: 0x1104, symBinAddr: 0x1000022C0, symSize: 0x18 }
  - { offsetInCU: 0x186DB, offset: 0x186DB, size: 0x8, addend: 0x0, symName: __ZN9__gnu_cxxeqIPK13ExerciseEntrySt6vectorIS1_SaIS1_EEEEbRKNS_17__normal_iteratorIT_T0_EESC_QrqXeqcldtfL0p_4baseEcldtfL0p0_4baseERSt14convertible_toIbEE, symObjAddr: 0x10C0, symBinAddr: 0x10000227C, symSize: 0x44 }
  - { offsetInCU: 0x1872B, offset: 0x1872B, size: 0x8, addend: 0x0, symName: __ZNK9__gnu_cxx17__normal_iteratorIPK13ExerciseEntrySt6vectorIS1_SaIS1_EEE4baseEv, symObjAddr: 0x10AC, symBinAddr: 0x100002268, symSize: 0x14 }
  - { offsetInCU: 0x18753, offset: 0x18753, size: 0x8, addend: 0x0, symName: __ZNKSt6vectorI13ExerciseEntrySaIS0_EE3endEv, symObjAddr: 0x1084, symBinAddr: 0x100002240, symSize: 0x28 }
  - { offsetInCU: 0x187F0, offset: 0x187F0, size: 0x8, addend: 0x0, symName: __ZN9__gnu_cxx17__normal_iteratorIPK13ExerciseEntrySt6vectorIS1_SaIS1_EEEC1ERKS3_, symObjAddr: 0x105C, symBinAddr: 0x100002218, symSize: 0x28 }
  - { offsetInCU: 0x187D2, offset: 0x187D2, size: 0x8, addend: 0x0, symName: __ZNKSt6vectorI13ExerciseEntrySaIS0_EE5beginEv, symObjAddr: 0x1038, symBinAddr: 0x1000021F4, symSize: 0x24 }
  - { offsetInCU: 0x187FA, offset: 0x187FA, size: 0x8, addend: 0x0, symName: __ZN7Routine11addExerciseEiRK13ExerciseEntry, symObjAddr: 0xFA0, symBinAddr: 0x10000215C, symSize: 0x98 }
  - { offsetInCU: 0x18873, offset: 0x18873, size: 0x8, addend: 0x0, symName: __ZN7RoutineC1Ei, symObjAddr: 0xF54, symBinAddr: 0x100002110, symSize: 0x4C }
  - { offsetInCU: 0x188E0, offset: 0x188E0, size: 0x8, addend: 0x0, symName: __ZNSt6vectorIS_I13ExerciseEntrySaIS0_EESaIS2_EEC1Ev, symObjAddr: 0xF34, symBinAddr: 0x1000020F0, symSize: 0x20 }
  - { offsetInCU: 0x1892E, offset: 0x1892E, size: 0x8, addend: 0x0, symName: __ZNSt12_Vector_baseISt6vectorI13ExerciseEntrySaIS1_EESaIS3_EEC2Ev, symObjAddr: 0xF14, symBinAddr: 0x1000020D0, symSize: 0x20 }
  - { offsetInCU: 0x18989, offset: 0x18989, size: 0x8, addend: 0x0, symName: __ZNSt12_Vector_baseISt6vectorI13ExerciseEntrySaIS1_EESaIS3_EE12_Vector_implD1Ev, symObjAddr: 0xEF4, symBinAddr: 0x1000020B0, symSize: 0x20 }
  - { offsetInCU: 0x189F1, offset: 0x189F1, size: 0x8, addend: 0x0, symName: __ZNSt12_Vector_baseISt6vectorI13ExerciseEntrySaIS1_EESaIS3_EE17_Vector_impl_dataC2Ev, symObjAddr: 0xEC8, symBinAddr: 0x100002084, symSize: 0x2C }
  - { offsetInCU: 0x18ABA, offset: 0x18ABA, size: 0x8, addend: 0x0, symName: __ZNSt12_Vector_baseISt6vectorI13ExerciseEntrySaIS1_EESaIS3_EE12_Vector_implC1EvQ26is_default_constructible_vIN9__gnu_cxx14__alloc_traitsIT0_NS9_10value_typeEE6rebindIT_E5otherEE, symObjAddr: 0xE90, symBinAddr: 0x10000204C, symSize: 0x38 }
  - { offsetInCU: 0x18A78, offset: 0x18A78, size: 0x8, addend: 0x0, symName: __ZN13ExerciseEntry7getSetsEv, symObjAddr: 0xE78, symBinAddr: 0x100002034, symSize: 0x18 }
  - { offsetInCU: 0x18AA0, offset: 0x18AA0, size: 0x8, addend: 0x0, symName: __ZNK13ExerciseEntry14getMuscleGroupB5cxx11Ev, symObjAddr: 0xE48, symBinAddr: 0x100002004, symSize: 0x30 }
  - { offsetInCU: 0x18AC8, offset: 0x18AC8, size: 0x8, addend: 0x0, symName: __ZNK13ExerciseEntry8toStringB5cxx11Ev, symObjAddr: 0xD04, symBinAddr: 0x100001EC0, symSize: 0x144 }
  - { offsetInCU: 0x18B51, offset: 0x18B51, size: 0x8, addend: 0x0, symName: __ZN13ExerciseEntryC1ERK8Exerciseii, symObjAddr: 0xCBC, symBinAddr: 0x100001E78, symSize: 0x48 }
  - { offsetInCU: 0x18B73, offset: 0x18B73, size: 0x8, addend: 0x0, symName: __ZN9Exercises11getExerciseEi, symObjAddr: 0xC6C, symBinAddr: 0x100001E28, symSize: 0x50 }
  - { offsetInCU: 0x18BAA, offset: 0x18BAA, size: 0x8, addend: 0x0, symName: __ZN9Exercises16displayExercisesEv, symObjAddr: 0xB50, symBinAddr: 0x100001D0C, symSize: 0x11C }
  - { offsetInCU: 0x18C56, offset: 0x18C56, size: 0x8, addend: 0x0, symName: __ZN8ExerciseD1Ev, symObjAddr: 0xB24, symBinAddr: 0x100001CE0, symSize: 0x2C }
  - { offsetInCU: 0x18C6F, offset: 0x18C6F, size: 0x8, addend: 0x0, symName: __ZNK9__gnu_cxx17__normal_iteratorIP8ExerciseSt6vectorIS1_SaIS1_EEEdeEv, symObjAddr: 0xB0C, symBinAddr: 0x100001CC8, symSize: 0x18 }
  - { offsetInCU: 0x18CC9, offset: 0x18CC9, size: 0x8, addend: 0x0, symName: __ZN8ExerciseC1ERKS_, symObjAddr: 0xAAC, symBinAddr: 0x100001C68, symSize: 0x60 }
  - { offsetInCU: 0x18D4A, offset: 0x18D4A, size: 0x8, addend: 0x0, symName: __ZNSt7__cxx1112basic_stringIcSt11char_traitsIcESaIcEEC1ERKS4_, symObjAddr: 0x9C8, symBinAddr: 0x100001B84, symSize: 0xE4 }
  - { offsetInCU: 0x18E2D, offset: 0x18E2D, size: 0x8, addend: 0x0, symName: __ZNKSt7__cxx1112basic_stringIcSt11char_traitsIcESaIcEE16_M_get_allocatorEv, symObjAddr: 0x9B4, symBinAddr: 0x100001B70, symSize: 0x14 }
  - { offsetInCU: 0x18E51, offset: 0x18E51, size: 0x8, addend: 0x0, symName: __ZN9__gnu_cxxeqIP8ExerciseSt6vectorIS1_SaIS1_EEEEbRKNS_17__normal_iteratorIT_T0_EESB_QrqXeqcldtfL0p_4baseEcldtfL0p0_4baseERSt14convertible_toIbEE, symObjAddr: 0x970, symBinAddr: 0x100001B2C, symSize: 0x44 }
  - { offsetInCU: 0x18EA1, offset: 0x18EA1, size: 0x8, addend: 0x0, symName: __ZNK9__gnu_cxx17__normal_iteratorIP8ExerciseSt6vectorIS1_SaIS1_EEE4baseEv, symObjAddr: 0x95C, symBinAddr: 0x100001B18, symSize: 0x14 }
  - { offsetInCU: 0x18EC9, offset: 0x18EC9, size: 0x8, addend: 0x0, symName: __ZN9Exercises11addExerciseERK8Exercise, symObjAddr: 0x934, symBinAddr: 0x100001AF0, symSize: 0x28 }
  - { offsetInCU: 0x18F00, offset: 0x18F00, size: 0x8, addend: 0x0, symName: __ZNK8Exercise8toStringB5cxx11Ev, symObjAddr: 0x888, symBinAddr: 0x100001A44, symSize: 0xAC }
  - { offsetInCU: 0x18F29, offset: 0x18F29, size: 0x8, addend: 0x0, symName: __ZNK8Exercise14getMuscleGroupB5cxx11Ev, symObjAddr: 0x850, symBinAddr: 0x100001A0C, symSize: 0x38 }
  - { offsetInCU: 0x18FC8, offset: 0x18FC8, size: 0x8, addend: 0x0, symName: __ZN8ExerciseC1ENSt7__cxx1112basic_stringIcSt11char_traitsIcESaIcEEES5_, symObjAddr: 0x7F8, symBinAddr: 0x1000019B4, symSize: 0x58 }
  - { offsetInCU: 0x18FBB, offset: 0x18FBB, size: 0x8, addend: 0x0, symName: __ZSt3minImERKT_S2_S2_, symObjAddr: 0x7C0, symBinAddr: 0x10000197C, symSize: 0x38 }
  - { offsetInCU: 0x18FFE, offset: 0x18FFE, size: 0x8, addend: 0x0, symName: __ZNSt8__detail20_Prime_rehash_policy8_M_resetEm, symObjAddr: 0x79C, symBinAddr: 0x100001958, symSize: 0x24 }
  - { offsetInCU: 0x19037, offset: 0x19037, size: 0x8, addend: 0x0, symName: __ZNKSt8__detail20_Prime_rehash_policy8_M_stateEv, symObjAddr: 0x784, symBinAddr: 0x100001940, symSize: 0x18 }
  - { offsetInCU: 0x190AC, offset: 0x190AC, size: 0x8, addend: 0x0, symName: __ZNSt8__detail20_Prime_rehash_policyC1Ef, symObjAddr: 0x758, symBinAddr: 0x100001914, symSize: 0x2C }
  - { offsetInCU: 0x190B6, offset: 0x190B6, size: 0x8, addend: 0x0, symName: __ZNKSt8__detail18_Mod_range_hashingclEmm, symObjAddr: 0x728, symBinAddr: 0x1000018E4, symSize: 0x30 }
  - { offsetInCU: 0x1913A, offset: 0x1913A, size: 0x8, addend: 0x0, symName: __ZNSt8__detail15_Hash_node_baseC1Ev, symObjAddr: 0x70C, symBinAddr: 0x1000018C8, symSize: 0x1C }
  - { offsetInCU: 0x19164, offset: 0x19164, size: 0x8, addend: 0x0, symName: __ZNSt8__detail15_Hash_node_baseC2Ev, symObjAddr: 0x6F0, symBinAddr: 0x1000018AC, symSize: 0x1C }
  - { offsetInCU: 0x19166, offset: 0x19166, size: 0x8, addend: 0x0, symName: __ZNSt8__detail14__to_chars_lenIjEEjT_i, symObjAddr: 0x618, symBinAddr: 0x1000017D4, symSize: 0xD8 }
  - { offsetInCU: 0x191E5, offset: 0x191E5, size: 0x8, addend: 0x0, symName: __ZNSt7__cxx119to_stringEi, symObjAddr: 0x56C, symBinAddr: 0x100001728, symSize: 0xAC }
  - { offsetInCU: 0x192A5, offset: 0x192A5, size: 0x8, addend: 0x0, symName: __ZZNSt7__cxx119to_stringEiENKUlPcmE_clES0_m, symObjAddr: 0x510, symBinAddr: 0x1000016CC, symSize: 0x5C }
  - { offsetInCU: 0x193C2, offset: 0x193C2, size: 0x8, addend: 0x0, symName: __ZNSt7__cxx1112basic_stringIcSt11char_traitsIcESaIcEEC1Ev, symObjAddr: 0x464, symBinAddr: 0x100001620, symSize: 0xAC }
  - { offsetInCU: 0x194C6, offset: 0x194C6, size: 0x8, addend: 0x0, symName: __ZNSt7__cxx1112basic_stringIcSt11char_traitsIcESaIcEE12_Alloc_hiderD1Ev, symObjAddr: 0x444, symBinAddr: 0x100001600, symSize: 0x20 }
  - { offsetInCU: 0x1950B, offset: 0x1950B, size: 0x8, addend: 0x0, symName: __ZSt4moveIRSaIcEEONSt16remove_referenceIT_E4typeEOS3_, symObjAddr: 0x430, symBinAddr: 0x1000015EC, symSize: 0x14 }
  - { offsetInCU: 0x195BC, offset: 0x195BC, size: 0x8, addend: 0x0, symName: __ZNSt7__cxx1112basic_stringIcSt11char_traitsIcESaIcEE12_Alloc_hiderC1EPcOS3_, symObjAddr: 0x3D4, symBinAddr: 0x100001590, symSize: 0x5C }
  - { offsetInCU: 0x1962B, offset: 0x1962B, size: 0x8, addend: 0x0, symName: __ZSt11__addressofIcEPT_RS0_, symObjAddr: 0x3C0, symBinAddr: 0x10000157C, symSize: 0x14 }
  - { offsetInCU: 0x1965B, offset: 0x1965B, size: 0x8, addend: 0x0, symName: __ZSt9addressofIcEPT_RS0_, symObjAddr: 0x3A4, symBinAddr: 0x100001560, symSize: 0x1C }
  - { offsetInCU: 0x1968B, offset: 0x1968B, size: 0x8, addend: 0x0, symName: __ZNSt19__ptr_traits_ptr_toIPccLb0EE10pointer_toERc, symObjAddr: 0x388, symBinAddr: 0x100001544, symSize: 0x1C }
  - { offsetInCU: 0x196B6, offset: 0x196B6, size: 0x8, addend: 0x0, symName: __ZNSt7__cxx1112basic_stringIcSt11char_traitsIcESaIcEE13_M_local_dataEv, symObjAddr: 0x368, symBinAddr: 0x100001524, symSize: 0x20 }
  - { offsetInCU: 0x196DA, offset: 0x196DA, size: 0x8, addend: 0x0, symName: __ZNSt10_Hash_impl4hashEPKvmm, symObjAddr: 0x33C, symBinAddr: 0x1000014F8, symSize: 0x2C }
  - { offsetInCU: 0x1971F, offset: 0x1971F, size: 0x8, addend: 0x0, symName: __ZNSt11char_traitsIcE6assignEPcmc, symObjAddr: 0x2C8, symBinAddr: 0x100001484, symSize: 0x74 }
  - { offsetInCU: 0x19784, offset: 0x19784, size: 0x8, addend: 0x0, symName: __ZNSt11char_traitsIcE4copyEPcPKcm, symObjAddr: 0x250, symBinAddr: 0x10000140C, symSize: 0x78 }
  - { offsetInCU: 0x197E9, offset: 0x197E9, size: 0x8, addend: 0x0, symName: __ZNSt11char_traitsIcE4moveEPcPKcm, symObjAddr: 0x1E8, symBinAddr: 0x1000013A4, symSize: 0x68 }
  - { offsetInCU: 0x1984E, offset: 0x1984E, size: 0x8, addend: 0x0, symName: __ZNSt11char_traitsIcE6lengthEPKc, symObjAddr: 0x1AC, symBinAddr: 0x100001368, symSize: 0x3C }
  - { offsetInCU: 0x19891, offset: 0x19891, size: 0x8, addend: 0x0, symName: __ZNSt11char_traitsIcE7compareEPKcS2_m, symObjAddr: 0xBC, symBinAddr: 0x100001278, symSize: 0xF0 }
  - { offsetInCU: 0x1991A, offset: 0x1991A, size: 0x8, addend: 0x0, symName: __ZNSt11char_traitsIcE2ltERKcS2_, symObjAddr: 0x84, symBinAddr: 0x100001240, symSize: 0x38 }
  - { offsetInCU: 0x19954, offset: 0x19954, size: 0x8, addend: 0x0, symName: __ZNSt11char_traitsIcE6assignERcRKc, symObjAddr: 0x38, symBinAddr: 0x1000011F4, symSize: 0x4C }
  - { offsetInCU: 0x199A9, offset: 0x199A9, size: 0x8, addend: 0x0, symName: __ZSt21is_constant_evaluatedv, symObjAddr: 0x30, symBinAddr: 0x1000011EC, symSize: 0x8 }
  - { offsetInCU: 0x199CD, offset: 0x199CD, size: 0x8, addend: 0x0, symName: __ZdlPvS_, symObjAddr: 0x18, symBinAddr: 0x1000011D4, symSize: 0x18 }
  - { offsetInCU: 0x19A02, offset: 0x19A02, size: 0x8, addend: 0x0, symName: __ZnwmPv, symObjAddr: 0x0, symBinAddr: 0x1000011BC, symSize: 0x18 }
...
